(dp0
cdatetime
datetime
p1
(S"\x07\xdb\x05\x0b\n'\x10\x05\xc0\xa8"
p2
tp3
Rp4
(lp5
(i__main__
DirectoryToProcess
p6
(dp7
S'_parentID'
p8
S'-1'
p9
sS'_name'
p10
S'TXV_DRIVER'
p11
sS'_id'
p12
S'1'
p13
sS'_results'
p14
(i__main__
LineCounts
p15
(dp16
S'_totalLines'
p17
I422596
sbsS'_path'
p18
S'D:\\Projects\\TXV_DRIVER'
p19
sba(i__main__
DirectoryToProcess
p20
(dp21
g8
S'1'
p22
sg10
S'Autoscope_driver'
p23
sg12
S'1.1'
p24
sg14
(i__main__
LineCounts
p25
(dp26
g17
I10830
sbsg18
S'D:\\Projects\\TXV_DRIVER\\drv_autoscope'
p27
sba(i__main__
DirectoryToProcess
p28
(dp29
g8
S'1'
p30
sg10
S'Autosense_driver'
p31
sg12
S'1.2'
p32
sg14
(i__main__
LineCounts
p33
(dp34
g17
I5339
sbsg18
S'D:\\Projects\\TXV_DRIVER\\drv_Autosense'
p35
sba(i__main__
DirectoryToProcess
p36
(dp37
g8
S'1'
p38
sg10
S'AVL_driver'
p39
sg12
S'1.3'
p40
sg14
(i__main__
LineCounts
p41
(dp42
g17
I1180
sbsg18
S'D:\\Projects\\TXV_DRIVER\\drv_AVL'
p43
sba(i__main__
DirectoryToProcess
p44
(dp45
g8
S'1'
p46
sg10
S'drv_bosch'
p47
sg12
S'1.4'
p48
sg14
(i__main__
LineCounts
p49
(dp50
g17
I4120
sbsg18
S'D:\\Projects\\TXV_DRIVER\\drv_bosch'
p51
sba(i__main__
DirectoryToProcess
p52
(dp53
g8
S'1'
p54
sg10
S'drv_dbsql'
p55
sg12
S'1.5'
p56
sg14
(i__main__
LineCounts
p57
(dp58
g17
I8771
sbsg18
S'D:\\Projects\\TXV_DRIVER\\drv_dbsql'
p59
sba(i__main__
DirectoryToProcess
p60
(dp61
g8
S'1'
p62
sg10
S'drv_dohvat'
p63
sg12
S'1.6'
p64
sg14
(i__main__
LineCounts
p65
(dp66
g17
I3395
sbsg18
S'D:\\Projects\\TXV_DRIVER\\drv_dohvat'
p67
sba(i__main__
DirectoryToProcess
p68
(dp69
g8
S'1'
p70
sg10
S'drv_enforcement'
p71
sg12
S'1.7'
p72
sg14
(i__main__
LineCounts
p73
(dp74
g17
I6568
sbsg18
S'D:\\Projects\\TXV_DRIVER\\drv_enforcement'
p75
sba(i__main__
DirectoryToProcess
p76
(dp77
g8
S'1'
p78
sg10
S'drv_eventmanager'
p79
sg12
S'1.8'
p80
sg14
(i__main__
LineCounts
p81
(dp82
g17
I6931
sbsg18
S'D:\\Projects\\TXV_DRIVER\\drv_eventmanager'
p83
sba(i__main__
DirectoryToProcess
p84
(dp85
g8
S'1'
p86
sg10
S'drv_FMS'
p87
sg12
S'1.9'
p88
sg14
(i__main__
LineCounts
p89
(dp90
g17
I4242
sbsg18
S'D:\\Projects\\TXV_DRIVER\\drv_FMS'
p91
sba(i__main__
DirectoryToProcess
p92
(dp93
g8
S'1'
p94
sg10
S'drv_GatsoGet'
p95
sg12
S'1.10'
p96
sg14
(i__main__
LineCounts
p97
(dp98
g17
I2034
sbsg18
S'D:\\Projects\\TXV_DRIVER\\drv_GatsoGet'
p99
sba(i__main__
DirectoryToProcess
p100
(dp101
g8
S'1'
p102
sg10
S'drv_GPRS'
p103
sg12
S'1.11'
p104
sg14
(i__main__
LineCounts
p105
(dp106
g17
I5711
sbsg18
S'D:\\Projects\\TXV_DRIVER\\drv_GPRS'
p107
sba(i__main__
DirectoryToProcess
p108
(dp109
g8
S'1'
p110
sg10
S'drv_gprs_tps'
p111
sg12
S'1.12'
p112
sg14
(i__main__
LineCounts
p113
(dp114
g17
I6285
sbsg18
S'D:\\Projects\\TXV_DRIVER\\drv_gprs_tps'
p115
sba(i__main__
DirectoryToProcess
p116
(dp117
g8
S'1'
p118
sg10
S'drv_IncidentManagement'
p119
sg12
S'1.13'
p120
sg14
(i__main__
LineCounts
p121
(dp122
g17
I379
sbsg18
S'D:\\Projects\\TXV_DRIVER\\drv_IncidentManagement'
p123
sba(i__main__
DirectoryToProcess
p124
(dp125
g8
S'1'
p126
sg10
S'drv_lpr'
p127
sg12
S'1.14'
p128
sg14
(i__main__
LineCounts
p129
(dp130
g17
I1412
sbsg18
S'D:\\Projects\\TXV_DRIVER\\drv_lpr'
p131
sba(i__main__
DirectoryToProcess
p132
(dp133
g8
S'1'
p134
sg10
S'drv_lpr_sim'
p135
sg12
S'1.15'
p136
sg14
(i__main__
LineCounts
p137
(dp138
g17
I1276
sbsg18
S'D:\\Projects\\TXV_DRIVER\\drv_lpr_sim'
p139
sba(i__main__
DirectoryToProcess
p140
(dp141
g8
S'1'
p142
sg10
S'drv_modbus'
p143
sg12
S'1.16'
p144
sg14
(i__main__
LineCounts
p145
(dp146
g17
I16175
sbsg18
S'D:\\Projects\\TXV_DRIVER\\drv_modbus'
p147
sba(i__main__
DirectoryToProcess
p148
(dp149
g8
S'1'
p150
sg10
S'drv_MQSimulator'
p151
sg12
S'1.17'
p152
sg14
(i__main__
LineCounts
p153
(dp154
g17
I908
sbsg18
S'D:\\Projects\\TXV_DRIVER\\drv_MQSimulator'
p155
sba(i__main__
DirectoryToProcess
p156
(dp157
g8
S'1'
p158
sg10
S'drv_msg_lib'
p159
sg12
S'1.18'
p160
sg14
(i__main__
LineCounts
p161
(dp162
g17
I5156
sbsg18
S'D:\\Projects\\TXV_DRIVER\\drv_msg_lib'
p163
sba(i__main__
DirectoryToProcess
p164
(dp165
g8
S'1'
p166
sg10
S'drv_opc'
p167
sg12
S'1.20'
p168
sg14
(i__main__
LineCounts
p169
(dp170
g17
I7526
sbsg18
S'D:\\Projects\\TXV_DRIVER\\drv_opc'
p171
sba(i__main__
DirectoryToProcess
p172
(dp173
g8
S'1'
p174
sg10
S'drv_Parking'
p175
sg12
S'1.21'
p176
sg14
(i__main__
LineCounts
p177
(dp178
g17
I1920
sbsg18
S'D:\\Projects\\TXV_DRIVER\\drv_Parking'
p179
sba(i__main__
DirectoryToProcess
p180
(dp181
g8
S'1'
p182
sg10
S'drv_PDA'
p183
sg12
S'1.22'
p184
sg14
(i__main__
LineCounts
p185
(dp186
g17
I4841
sbsg18
S'D:\\Projects\\TXV_DRIVER\\drv_PDA'
p187
sba(i__main__
DirectoryToProcess
p188
(dp189
g8
S'1'
p190
sg10
S'drv_prom'
p191
sg12
S'1.23'
p192
sg14
(i__main__
LineCounts
p193
(dp194
g17
I15878
sbsg18
S'D:\\Projects\\TXV_DRIVER\\drv_prom'
p195
sba(i__main__
DirectoryToProcess
p196
(dp197
g8
S'1'
p198
sg10
S'drv_prom_P'
p199
sg12
S'1.24'
p200
sg14
(i__main__
LineCounts
p201
(dp202
g17
I47234
sbsg18
S'D:\\Projects\\TXV_DRIVER\\drv_prom_P'
p203
sba(i__main__
DirectoryToProcess
p204
(dp205
g8
S'1'
p206
sg10
S'drv_PTM'
p207
sg12
S'1.25'
p208
sg14
(i__main__
LineCounts
p209
(dp210
g17
I2893
sbsg18
S'D:\\Projects\\TXV_DRIVER\\drv_PTM'
p211
sba(i__main__
DirectoryToProcess
p212
(dp213
g8
S'1'
p214
sg10
S'drv_Quercus'
p215
sg12
S'1.26'
p216
sg14
(i__main__
LineCounts
p217
(dp218
g17
I8460
sbsg18
S'D:\\Projects\\TXV_DRIVER\\drv_Quercus'
p219
sba(i__main__
DirectoryToProcess
p220
(dp221
g8
S'1'
p222
sg10
S'drv_Raktel'
p223
sg12
S'1.27'
p224
sg14
(i__main__
LineCounts
p225
(dp226
g17
I29193
sbsg18
S'D:\\Projects\\TXV_DRIVER\\drv_Raktel'
p227
sba(i__main__
DirectoryToProcess
p228
(dp229
g8
S'1'
p230
sg10
S'drv_Raktel_Simulator'
p231
sg12
S'1.28'
p232
sg14
(i__main__
LineCounts
p233
(dp234
g17
I6472
sbsg18
S'D:\\Projects\\TXV_DRIVER\\drv_Raktel_Simulator'
p235
sba(i__main__
DirectoryToProcess
p236
(dp237
g8
S'1'
p238
sg10
S'drv_Repository'
p239
sg12
S'1.29'
p240
sg14
(i__main__
LineCounts
p241
(dp242
g17
I3047
sbsg18
S'D:\\Projects\\TXV_DRIVER\\drv_Repository'
p243
sba(i__main__
DirectoryToProcess
p244
(dp245
g8
S'1'
p246
sg10
S'drv_SCATS'
p247
sg12
S'1.30'
p248
sg14
(i__main__
LineCounts
p249
(dp250
g17
I6631
sbsg18
S'D:\\Projects\\TXV_DRIVER\\drv_SCATS'
p251
sba(i__main__
DirectoryToProcess
p252
(dp253
g8
S'1'
p254
sg10
S'drv_sepura'
p255
sg12
S'1.31'
p256
sg14
(i__main__
LineCounts
p257
(dp258
g17
I3393
sbsg18
S'D:\\Projects\\TXV_DRIVER\\drv_sepura'
p259
sba(i__main__
DirectoryToProcess
p260
(dp261
g8
S'1'
p262
sg10
S'drv_SipPhone'
p263
sg12
S'1.32'
p264
sg14
(i__main__
LineCounts
p265
(dp266
g17
I4070
sbsg18
S'D:\\Projects\\TXV_DRIVER\\drv_SipPhone'
p267
sba(i__main__
DirectoryToProcess
p268
(dp269
g8
S'1'
p270
sg10
S'drv_snmp'
p271
sg12
S'1.33'
p272
sg14
(i__main__
LineCounts
p273
(dp274
g17
I3669
sbsg18
S'D:\\Projects\\TXV_DRIVER\\drv_snmp'
p275
sba(i__main__
DirectoryToProcess
p276
(dp277
g8
S'1'
p278
sg10
S'drv_tps'
p279
sg12
S'1.34'
p280
sg14
(i__main__
LineCounts
p281
(dp282
g17
I34380
sbsg18
S'D:\\Projects\\TXV_DRIVER\\drv_tps\\trunk'
p283
sba(i__main__
DirectoryToProcess
p284
(dp285
g8
S'1'
p286
sg10
S'drv_Traficon'
p287
sg12
S'1.35'
p288
sg14
(i__main__
LineCounts
p289
(dp290
g17
I2139
sbsg18
S'D:\\Projects\\TXV_DRIVER\\drv_Traficon'
p291
sba(i__main__
DirectoryToProcess
p292
(dp293
g8
S'1'
p294
sg10
S'drv_VBA'
p295
sg12
S'1.36'
p296
sg14
(i__main__
LineCounts
p297
(dp298
g17
I4121
sbsg18
S'D:\\Projects\\TXV_DRIVER\\drv_VBA'
p299
sba(i__main__
DirectoryToProcess
p300
(dp301
g8
S'1'
p302
sg10
S'drv_Vidos'
p303
sg12
S'1.37'
p304
sg14
(i__main__
LineCounts
p305
(dp306
g17
I309
sbsg18
S'D:\\Projects\\TXV_DRIVER\\drv_Vidos'
p307
sba(i__main__
DirectoryToProcess
p308
(dp309
g8
S'1'
p310
sg10
S'drv_vmatrix'
p311
sg12
S'1.38'
p312
sg14
(i__main__
LineCounts
p313
(dp314
g17
I3890
sbsg18
S'D:\\Projects\\TXV_DRIVER\\drv_vmatrix'
p315
sba(i__main__
DirectoryToProcess
p316
(dp317
g8
S'1'
p318
sg10
S'drv_voip_pbx'
p319
sg12
S'1.39'
p320
sg14
(i__main__
LineCounts
p321
(dp322
g17
I55102
sbsg18
S'D:\\Projects\\TXV_DRIVER\\drv_voip_pbx'
p323
sba(i__main__
DirectoryToProcess
p324
(dp325
g8
S'1'
p326
sg10
S'drv_voip_tps'
p327
sg12
S'1.40'
p328
sg14
(i__main__
LineCounts
p329
(dp330
g17
I7429
sbsg18
S'D:\\Projects\\TXV_DRIVER\\drv_voip_tps'
p331
sba(i__main__
DirectoryToProcess
p332
(dp333
g8
S'1'
p334
sg10
S'drv_Win32Sys'
p335
sg12
S'1.41'
p336
sg14
(i__main__
LineCounts
p337
(dp338
g17
I1694
sbsg18
S'D:\\Projects\\TXV_DRIVER\\drv_Win32Sys'
p339
sba(i__main__
DirectoryToProcess
p340
(dp341
g8
S'1'
p342
sg10
S'mTPC'
p343
sg12
S'1.42'
p344
sg14
(i__main__
LineCounts
p345
(dp346
g17
I52790
sbsg18
S'D:\\Projects\\TXV_DRIVER\\mTPC\\trunk'
p347
sba(i__main__
DirectoryToProcess
p348
(dp349
g8
S'1'
p350
sg10
S'txv_auto_rad'
p351
sg12
S'1.43'
p352
sg14
(i__main__
LineCounts
p353
(dp354
g17
I12306
sbsg18
S'D:\\Projects\\TXV_DRIVER\\txv_auto_rad'
p355
sba(i__main__
DirectoryToProcess
p356
(dp357
g8
S'1'
p358
sg10
S'txv_Bridge'
p359
sg12
S'1.44'
p360
sg14
(i__main__
LineCounts
p361
(dp362
g17
I2591
sbsg18
S'D:\\Projects\\TXV_DRIVER\\txv_Bridge'
p363
sba(i__main__
DirectoryToProcess
p364
(dp365
g8
S'1'
p366
sg10
S'txv_california'
p367
sg12
S'1.45'
p368
sg14
(i__main__
LineCounts
p369
(dp370
g17
I855
sbsg18
S'D:\\Projects\\TXV_DRIVER\\txv_california'
p371
sba(i__main__
DirectoryToProcess
p372
(dp373
g8
S'1'
p374
sg10
S'txv_wavetronix'
p375
sg12
S'1.46'
p376
sg14
(i__main__
LineCounts
p377
(dp378
g17
I9051
sbsg18
S'D:\\Projects\\TXV_DRIVER\\txv_wavetronix'
p379
sba(i__main__
DirectoryToProcess
p380
(dp381
g8
S'-1'
p382
sg10
S'TXV_PLATFORM'
p383
sg12
S'2'
p384
sg14
(i__main__
LineCounts
p385
(dp386
g17
I752221
sbsg18
S'D:\\Projects\\TXV_PLATFORM\\trunk'
p387
sba(i__main__
DirectoryToProcess
p388
(dp389
g8
S'2'
p390
sg10
S'Alarm_Management'
p391
sg12
S'2.1'
p392
sg14
(i__main__
LineCounts
p393
(dp394
g17
I19248
sbsg18
S'D:\\Projects\\TXV_PLATFORM\\trunk\\Alarm Management'
p395
sba(i__main__
DirectoryToProcess
p396
(dp397
g8
S'2'
p398
sg10
S'AVL'
p399
sg12
S'2.2'
p400
sg14
(i__main__
LineCounts
p401
(dp402
g17
I29177
sbsg18
S'D:\\Projects\\TXV_PLATFORM\\trunk\\AVL'
p403
sba(i__main__
DirectoryToProcess
p404
(dp405
g8
S'2'
p406
sg10
S'Base'
p407
sg12
S'2.3'
p408
sg14
(i__main__
LineCounts
p409
(dp410
g17
I51884
sbsg18
S'D:\\Projects\\TXV_PLATFORM\\trunk\\Base'
p411
sba(i__main__
DirectoryToProcess
p412
(dp413
g8
S'2'
p414
sg10
S'Common'
p415
sg12
S'2.4'
p416
sg14
(i__main__
LineCounts
p417
(dp418
g17
I72043
sbsg18
S'D:\\Projects\\TXV_PLATFORM\\trunk\\Common'
p419
sba(i__main__
DirectoryToProcess
p420
(dp421
g8
S'2'
p422
sg10
S'Designer'
p423
sg12
S'2.5'
p424
sg14
(i__main__
LineCounts
p425
(dp426
g17
I106294
sbsg18
S'D:\\Projects\\TXV_PLATFORM\\trunk\\Designer'
p427
sba(i__main__
DirectoryToProcess
p428
(dp429
g8
S'2'
p430
sg10
S'Device_Library'
p431
sg12
S'2.6'
p432
sg14
(i__main__
LineCounts
p433
(dp434
g17
I99014
sbsg18
S'D:\\Projects\\TXV_PLATFORM\\trunk\\Device Library'
p435
sba(i__main__
DirectoryToProcess
p436
(dp437
g8
S'2'
p438
sg10
S'Device_Simulator'
p439
sg12
S'2.7'
p440
sg14
(i__main__
LineCounts
p441
(dp442
g17
I3077
sbsg18
S'D:\\Projects\\TXV_PLATFORM\\trunk\\Device Simulator'
p443
sba(i__main__
DirectoryToProcess
p444
(dp445
g8
S'2'
p446
sg10
S'GUI'
p447
sg12
S'2.8'
p448
sg14
(i__main__
LineCounts
p449
(dp450
g17
I245059
sbsg18
S'D:\\Projects\\TXV_PLATFORM\\trunk\\GUI'
p451
sba(i__main__
DirectoryToProcess
p452
(dp453
g8
S'2'
p454
sg10
S'IM'
p455
sg12
S'2.9'
p456
sg14
(i__main__
LineCounts
p457
(dp458
g17
I2460
sbsg18
S'D:\\Projects\\TXV_PLATFORM\\trunk\\IM'
p459
sba(i__main__
DirectoryToProcess
p460
(dp461
g8
S'2'
p462
sg10
S'LED'
p463
sg12
S'2.10'
p464
sg14
(i__main__
LineCounts
p465
(dp466
g17
I8975
sbsg18
S'D:\\Projects\\TXV_PLATFORM\\trunk\\LED'
p467
sba(i__main__
DirectoryToProcess
p468
(dp469
g8
S'2'
p470
sg10
S'Parking'
p471
sg12
S'2.11'
p472
sg14
(i__main__
LineCounts
p473
(dp474
g17
I8420
sbsg18
S'D:\\Projects\\TXV_PLATFORM\\trunk\\Parking'
p475
sba(i__main__
DirectoryToProcess
p476
(dp477
g8
S'2'
p478
sg10
S'PTM'
p479
sg12
S'2.12'
p480
sg14
(i__main__
LineCounts
p481
(dp482
g17
I5386
sbsg18
S'D:\\Projects\\TXV_PLATFORM\\trunk\\PTM'
p483
sba(i__main__
DirectoryToProcess
p484
(dp485
g8
S'2'
p486
sg10
S'RWIS'
p487
sg12
S'2.13'
p488
sg14
(i__main__
LineCounts
p489
(dp490
g17
I3875
sbsg18
S'D:\\Projects\\TXV_PLATFORM\\trunk\\RWIS'
p491
sba(i__main__
DirectoryToProcess
p492
(dp493
g8
S'2'
p494
sg10
S'SCATS'
p495
sg12
S'2.14'
p496
sg14
(i__main__
LineCounts
p497
(dp498
g17
I17668
sbsg18
S'D:\\Projects\\TXV_PLATFORM\\trunk\\SCATS'
p499
sba(i__main__
DirectoryToProcess
p500
(dp501
g8
S'2'
p502
sg10
S'TTP'
p503
sg12
S'2.15'
p504
sg14
(i__main__
LineCounts
p505
(dp506
g17
I1356
sbsg18
S'D:\\Projects\\TXV_PLATFORM\\trunk\\TTP'
p507
sba(i__main__
DirectoryToProcess
p508
(dp509
g8
S'2'
p510
sg10
S'TVIS'
p511
sg12
S'2.16'
p512
sg14
(i__main__
LineCounts
p513
(dp514
g17
I78285
sbsg18
S'D:\\Projects\\TXV_PLATFORM\\trunk\\TVIS'
p515
sba(i__main__
DirectoryToProcess
p516
(dp517
g8
S'-1'
p518
sg10
S'TXV_CLIENT'
p519
sg12
S'3'
p520
sg14
(i__main__
LineCounts
p521
(dp522
g17
I506012
sbsg18
S'D:\\Projects\\TXV_CLIENT'
p523
sba(i__main__
DirectoryToProcess
p524
(dp525
g8
S'3'
p526
sg10
S'AutomationServer'
p527
sg12
S'3.1'
p528
sg14
(i__main__
LineCounts
p529
(dp530
g17
I11120
sbsg18
S'D:\\Projects\\TXV_CLIENT\\AutomationServer'
p531
sba(i__main__
DirectoryToProcess
p532
(dp533
g8
S'3'
p534
sg10
S'DataIntegrity'
p535
sg12
S'3.2'
p536
sg14
(i__main__
LineCounts
p537
(dp538
g17
I615
sbsg18
S'D:\\Projects\\TXV_CLIENT\\DataIntegrity'
p539
sba(i__main__
DirectoryToProcess
p540
(dp541
g8
S'3'
p542
sg10
S'NTCIP_C2C'
p543
sg12
S'3.3'
p544
sg14
(i__main__
LineCounts
p545
(dp546
g17
I64884
sbsg18
S'D:\\Projects\\TXV_CLIENT\\NTCIP_C2C'
p547
sba(i__main__
DirectoryToProcess
p548
(dp549
g8
S'3'
p550
sg10
S'NTCIP_C2F'
p551
sg12
S'3.4'
p552
sg14
(i__main__
LineCounts
p553
(dp554
g17
I62528
sbsg18
S'D:\\Projects\\TXV_CLIENT\\NTCIP_C2F'
p555
sba(i__main__
DirectoryToProcess
p556
(dp557
g8
S'3'
p558
sg10
S'OM_Interface'
p559
sg12
S'3.5'
p560
sg14
(i__main__
LineCounts
p561
(dp562
g17
I3127
sbsg18
S'D:\\Projects\\TXV_CLIENT\\OM_Interface'
p563
sba(i__main__
DirectoryToProcess
p564
(dp565
g8
S'3'
p566
sg10
S'ScenarioManager2'
p567
sg12
S'3.6'
p568
sg14
(i__main__
LineCounts
p569
(dp570
g17
I14778
sbsg18
S'D:\\Projects\\TXV_CLIENT\\ScenarioManager2'
p571
sba(i__main__
DirectoryToProcess
p572
(dp573
g8
S'3'
p574
sg10
S'scenario_manager'
p575
sg12
S'3.7'
p576
sg14
(i__main__
LineCounts
p577
(dp578
g17
I7026
sbsg18
S'D:\\Projects\\TXV_CLIENT\\scenario_manager'
p579
sba(i__main__
DirectoryToProcess
p580
(dp581
g8
S'3'
p582
sg10
S'SpeedEnforcement'
p583
sg12
S'3.8'
p584
sg14
(i__main__
LineCounts
p585
(dp586
g17
I8436
sbsg18
S'D:\\Projects\\TXV_CLIENT\\SpeedEnforcement\\trunk\\src'
p587
sba(i__main__
DirectoryToProcess
p588
(dp589
g8
S'3'
p590
sg10
S'test_app'
p591
sg12
S'3.9'
p592
sg14
(i__main__
LineCounts
p593
(dp594
g17
I5788
sbsg18
S'D:\\Projects\\TXV_CLIENT\\test_app'
p595
sba(i__main__
DirectoryToProcess
p596
(dp597
g8
S'3'
p598
sg10
S'tXv_PDA_App'
p599
sg12
S'3.10'
p600
sg14
(i__main__
LineCounts
p601
(dp602
g17
I2304
sbsg18
S'D:\\Projects\\TXV_CLIENT\\tXv PDA App'
p603
sba(i__main__
DirectoryToProcess
p604
(dp605
g8
S'3'
p606
sg10
S'TXV_DATEX2'
p607
sg12
S'3.11'
p608
sg14
(i__main__
LineCounts
p609
(dp610
g17
I32753
sbsg18
S'D:\\Projects\\TXV_CLIENT\\TXV_DATEX2'
p611
sba(i__main__
DirectoryToProcess
p612
(dp613
g8
S'3'
p614
sg10
S'TXV_GUI_1'
p615
sg12
S'3.12'
p616
sg14
(i__main__
LineCounts
p617
(dp618
g17
I268772
sbsg18
S'D:\\Projects\\TXV_CLIENT\\TXV_GUI'
p619
sba(i__main__
DirectoryToProcess
p620
(dp621
g8
S'3'
p622
sg10
S'TXV_SERVICE'
p623
sg12
S'3.13'
p624
sg14
(i__main__
LineCounts
p625
(dp626
g17
I2315
sbsg18
S'D:\\Projects\\TXV_CLIENT\\TXV_SERVICE'
p627
sba(i__main__
DirectoryToProcess
p628
(dp629
g8
S'3'
p630
sg10
S'TXV_TFP'
p631
sg12
S'3.14'
p632
sg14
(i__main__
LineCounts
p633
(dp634
g17
I19562
sbsg18
S'D:\\Projects\\TXV_CLIENT\\TXV_TFP'
p635
sba(i__main__
DirectoryToProcess
p636
(dp637
g8
S'3'
p638
sg10
S'TXV_TTPRo'
p639
sg12
S'3.15'
p640
sg14
(i__main__
LineCounts
p641
(dp642
g17
I2004
sbsg18
S'D:\\Projects\\TXV_CLIENT\\TXV_TTPRo'
p643
sba(i__main__
DirectoryToProcess
p644
(dp645
g8
S'-1'
p646
sg10
S'TXV_CORE'
p647
sg12
S'4'
p648
sg14
(i__main__
LineCounts
p649
(dp650
g17
I115446
sbsg18
S'D:\\Projects\\TXV_CORE'
p651
sba(i__main__
DirectoryToProcess
p652
(dp653
g8
S'4'
p654
sg10
S'C_LIBRARY'
p655
sg12
S'4.1'
p656
sg14
(i__main__
LineCounts
p657
(dp658
g17
I27679
sbsg18
S'D:\\Projects\\TXV_CORE\\C_LIBRARY'
p659
sba(i__main__
DirectoryToProcess
p660
(dp661
g8
S'4'
p662
sg10
S'C_LIBRARY-branch-datasequencing'
p663
sg12
S'4.2'
p664
sg14
(i__main__
LineCounts
p665
(dp666
g17
I27738
sbsg18
S'D:\\Projects\\TXV_CORE\\C_LIBRARY-branch-datasequencing'
p667
sba(i__main__
DirectoryToProcess
p668
(dp669
g8
S'4'
p670
sg10
S'historian'
p671
sg12
S'4.3'
p672
sg14
(i__main__
LineCounts
p673
(dp674
g17
I6361
sbsg18
S'D:\\Projects\\TXV_CORE\\historian\\trunk'
p675
sba(i__main__
DirectoryToProcess
p676
(dp677
g8
S'4'
p678
sg10
S'tXv_Jezgra'
p679
sg12
S'4.4'
p680
sg14
(i__main__
LineCounts
p681
(dp682
g17
I41430
sbsg18
S'D:\\Projects\\TXV_CORE\\tXv Jezgra'
p683
sba(i__main__
DirectoryToProcess
p684
(dp685
g8
S'4'
p686
sg10
S'txv_Filter_HR'
p687
sg12
S'4.5'
p688
sg14
(i__main__
LineCounts
p689
(dp690
g17
I2645
sbsg18
S'D:\\Projects\\TXV_CORE\\txv_Filter_HR'
p691
sba(i__main__
DirectoryToProcess
p692
(dp693
g8
S'4'
p694
sg10
S'UserRights'
p695
sg12
S'4.6'
p696
sg14
(i__main__
LineCounts
p697
(dp698
g17
I9593
sbsg18
S'D:\\Projects\\TXV_CORE\\UserRights'
p699
sba(i__main__
DirectoryToProcess
p700
(dp701
g8
S'-1'
p702
sg10
S'TXV_VIDEO'
p703
sg12
S'5'
p704
sg14
(i__main__
LineCounts
p705
(dp706
g17
I107919
sbsg18
S'D:\\Projects\\TXV_VIDEO'
p707
sba(i__main__
DirectoryToProcess
p708
(dp709
g8
S'5'
p710
sg10
S'drv_EyeConn'
p711
sg12
S'5.1'
p712
sg14
(i__main__
LineCounts
p713
(dp714
g17
I4610
sbsg18
S'D:\\Projects\\TXV_VIDEO\\drv_EyeConn'
p715
sba(i__main__
DirectoryToProcess
p716
(dp717
g8
S'5'
p718
sg10
S'drv_PTZ'
p719
sg12
S'5.2'
p720
sg14
(i__main__
LineCounts
p721
(dp722
g17
I5651
sbsg18
S'D:\\Projects\\TXV_VIDEO\\drv_PTZ'
p723
sba(i__main__
DirectoryToProcess
p724
(dp725
g8
S'5'
p726
sg10
S'drv_VideoTPS'
p727
sg12
S'5.3'
p728
sg14
(i__main__
LineCounts
p729
(dp730
g17
I1833
sbsg18
S'D:\\Projects\\TXV_VIDEO\\drv_VideoTPS'
p731
sba(i__main__
DirectoryToProcess
p732
(dp733
g8
S'5'
p734
sg10
S'KeyboardDriver'
p735
sg12
S'5.4'
p736
sg14
(i__main__
LineCounts
p737
(dp738
g17
I9369
sbsg18
S'D:\\Projects\\TXV_VIDEO\\KeyboardDriver'
p739
sba(i__main__
DirectoryToProcess
p740
(dp741
g8
S'5'
p742
sg10
S'NVR'
p743
sg12
S'5.5'
p744
sg14
(i__main__
LineCounts
p745
(dp746
g17
I35246
sbsg18
S'D:\\Projects\\TXV_VIDEO\\NVR'
p747
sba(i__main__
DirectoryToProcess
p748
(dp749
g8
S'5'
p750
sg10
S'NVRConnDLL'
p751
sg12
S'5.6'
p752
sg14
(i__main__
LineCounts
p753
(dp754
g17
I2970
sbsg18
S'D:\\Projects\\TXV_VIDEO\\NVRConnDLL'
p755
sba(i__main__
DirectoryToProcess
p756
(dp757
g8
S'5'
p758
sg10
S'NVRConsole'
p759
sg12
S'5.7'
p760
sg14
(i__main__
LineCounts
p761
(dp762
g17
I19043
sbsg18
S'D:\\Projects\\TXV_VIDEO\\NVRConsole'
p763
sba(i__main__
DirectoryToProcess
p764
(dp765
g8
S'5'
p766
sg10
S'VideoPlayer'
p767
sg12
S'5.8'
p768
sg14
(i__main__
LineCounts
p769
(dp770
g17
I29197
sbsg18
S'D:\\Projects\\TXV_VIDEO\\VideoPlayer'
p771
sba(i__main__
DirectoryToProcess
p772
(dp773
g8
S'-1'
p774
sg10
S'TXV_INTERNAL'
p775
sg12
S'6'
p776
sg14
(i__main__
LineCounts
p777
(dp778
g17
I46247
sbsg18
S'D:\\Projects\\TXV_INTERNAL'
p779
sba(i__main__
DirectoryToProcess
p780
(dp781
g8
S'6'
p782
sg10
S'Nemesis'
p783
sg12
S'6.1'
p784
sg14
(i__main__
LineCounts
p785
(dp786
g17
I46247
sbsg18
S'D:\\Projects\\TXV_INTERNAL\\Nemesis'
p787
sbasg1
(S'\x07\xdc\x0c\x18\n\x1d(\x06\xb6\xc0'
p788
tp789
Rp790
(lp791
(i__main__
DirectoryToProcess
p792
(dp793
g8
S'-1'
p794
sg10
S'TXV_DRIVER'
p795
sS'_parent'
p796
Nsg14
(i__main__
LineCounts
p797
(dp798
S'_totalCommentLines'
p799
I0
sS'_hLines'
p800
I0
sS'_csLines'
p801
I0
sS'_cLines'
p802
I0
sg17
I488126
sS'_cppLines'
p803
I0
sS'_xamlLines'
p804
I0
sbsg12
S'1'
p805
sg18
S'D:\\Projects\\TXV_DRIVER'
p806
sba(i__main__
DirectoryToProcess
p807
(dp808
g8
g805
sg10
S'Autoscope_driver'
p809
sg796
g792
sg14
(i__main__
LineCounts
p810
(dp811
g799
I0
sg800
I0
sg801
I0
sg802
I0
sg17
I10867
sg803
I0
sg804
I0
sbsg12
S'1.1'
p812
sg18
S'D:\\Projects\\TXV_DRIVER\\drv_autoscope'
p813
sba(i__main__
DirectoryToProcess
p814
(dp815
g8
g805
sg10
S'Autosense_driver'
p816
sg796
g792
sg14
(i__main__
LineCounts
p817
(dp818
g799
I0
sg800
I0
sg801
I0
sg802
I0
sg17
I5339
sg803
I0
sg804
I0
sbsg12
S'1.2'
p819
sg18
S'D:\\Projects\\TXV_DRIVER\\drv_Autosense'
p820
sba(i__main__
DirectoryToProcess
p821
(dp822
g8
g805
sg10
S'AVL_driver'
p823
sg796
g792
sg14
(i__main__
LineCounts
p824
(dp825
g799
I0
sg800
I0
sg801
I0
sg802
I0
sg17
I1180
sg803
I0
sg804
I0
sbsg12
S'1.3'
p826
sg18
S'D:\\Projects\\TXV_DRIVER\\drv_AVL'
p827
sba(i__main__
DirectoryToProcess
p828
(dp829
g8
g805
sg10
S'drv_bosch'
p830
sg796
g792
sg14
(i__main__
LineCounts
p831
(dp832
g799
I0
sg800
I0
sg801
I0
sg802
I0
sg17
I4274
sg803
I0
sg804
I0
sbsg12
S'1.4'
p833
sg18
S'D:\\Projects\\TXV_DRIVER\\drv_bosch'
p834
sba(i__main__
DirectoryToProcess
p835
(dp836
g8
g805
sg10
S'drv_dbsql'
p837
sg796
g792
sg14
(i__main__
LineCounts
p838
(dp839
g799
I0
sg800
I0
sg801
I0
sg802
I0
sg17
I8771
sg803
I0
sg804
I0
sbsg12
S'1.5'
p840
sg18
S'D:\\Projects\\TXV_DRIVER\\drv_dbsql'
p841
sba(i__main__
DirectoryToProcess
p842
(dp843
g8
g805
sg10
S'drv_dohvat'
p844
sg796
g792
sg14
(i__main__
LineCounts
p845
(dp846
g799
I0
sg800
I0
sg801
I0
sg802
I0
sg17
I3395
sg803
I0
sg804
I0
sbsg12
S'1.6'
p847
sg18
S'D:\\Projects\\TXV_DRIVER\\drv_dohvat'
p848
sba(i__main__
DirectoryToProcess
p849
(dp850
g8
g805
sg10
S'drv_enforcement'
p851
sg796
g792
sg14
(i__main__
LineCounts
p852
(dp853
g799
I0
sg800
I0
sg801
I0
sg802
I0
sg17
I23114
sg803
I0
sg804
I0
sbsg12
S'1.7'
p854
sg18
S'D:\\Projects\\TXV_DRIVER\\drv_enforcement'
p855
sba(i__main__
DirectoryToProcess
p856
(dp857
g8
g805
sg10
S'drv_eventmanager'
p858
sg796
g792
sg14
(i__main__
LineCounts
p859
(dp860
g799
I0
sg800
I0
sg801
I0
sg802
I0
sg17
I7404
sg803
I0
sg804
I0
sbsg12
S'1.8'
p861
sg18
S'D:\\Projects\\TXV_DRIVER\\drv_eventmanager'
p862
sba(i__main__
DirectoryToProcess
p863
(dp864
g8
g805
sg10
S'drv_FMS'
p865
sg796
g792
sg14
(i__main__
LineCounts
p866
(dp867
g799
I0
sg800
I0
sg801
I0
sg802
I0
sg17
I4242
sg803
I0
sg804
I0
sbsg12
S'1.9'
p868
sg18
S'D:\\Projects\\TXV_DRIVER\\drv_FMS'
p869
sba(i__main__
DirectoryToProcess
p870
(dp871
g8
g805
sg10
S'drv_GatsoGet'
p872
sg796
g792
sg14
(i__main__
LineCounts
p873
(dp874
g799
I0
sg800
I0
sg801
I0
sg802
I0
sg17
I2034
sg803
I0
sg804
I0
sbsg12
S'1.10'
p875
sg18
S'D:\\Projects\\TXV_DRIVER\\drv_GatsoGet'
p876
sba(i__main__
DirectoryToProcess
p877
(dp878
g8
g805
sg10
S'drv_GPRS'
p879
sg796
g792
sg14
(i__main__
LineCounts
p880
(dp881
g799
I0
sg800
I0
sg801
I0
sg802
I0
sg17
I5726
sg803
I0
sg804
I0
sbsg12
S'1.11'
p882
sg18
S'D:\\Projects\\TXV_DRIVER\\drv_GPRS'
p883
sba(i__main__
DirectoryToProcess
p884
(dp885
g8
g805
sg10
S'drv_gprs_tps'
p886
sg796
g792
sg14
(i__main__
LineCounts
p887
(dp888
g799
I0
sg800
I0
sg801
I0
sg802
I0
sg17
I6285
sg803
I0
sg804
I0
sbsg12
S'1.12'
p889
sg18
S'D:\\Projects\\TXV_DRIVER\\drv_gprs_tps'
p890
sba(i__main__
DirectoryToProcess
p891
(dp892
g8
g805
sg10
S'drv_IncidentManagement'
p893
sg796
g792
sg14
(i__main__
LineCounts
p894
(dp895
g799
I0
sg800
I0
sg801
I0
sg802
I0
sg17
I482
sg803
I0
sg804
I0
sbsg12
S'1.13'
p896
sg18
S'D:\\Projects\\TXV_DRIVER\\drv_IncidentManagement'
p897
sba(i__main__
DirectoryToProcess
p898
(dp899
g8
g805
sg10
S'drv_lpr'
p900
sg796
g792
sg14
(i__main__
LineCounts
p901
(dp902
g799
I0
sg800
I0
sg801
I0
sg802
I0
sg17
I1412
sg803
I0
sg804
I0
sbsg12
S'1.14'
p903
sg18
S'D:\\Projects\\TXV_DRIVER\\drv_lpr'
p904
sba(i__main__
DirectoryToProcess
p905
(dp906
g8
g805
sg10
S'drv_lpr_sim'
p907
sg796
g792
sg14
(i__main__
LineCounts
p908
(dp909
g799
I0
sg800
I0
sg801
I0
sg802
I0
sg17
I1276
sg803
I0
sg804
I0
sbsg12
S'1.15'
p910
sg18
S'D:\\Projects\\TXV_DRIVER\\drv_lpr_sim'
p911
sba(i__main__
DirectoryToProcess
p912
(dp913
g8
g805
sg10
S'drv_modbus'
p914
sg796
g792
sg14
(i__main__
LineCounts
p915
(dp916
g799
I0
sg800
I0
sg801
I0
sg802
I0
sg17
I29359
sg803
I0
sg804
I0
sbsg12
S'1.16'
p917
sg18
S'D:\\Projects\\TXV_DRIVER\\drv_modbus'
p918
sba(i__main__
DirectoryToProcess
p919
(dp920
g8
g805
sg10
S'drv_MQSimulator'
p921
sg796
g792
sg14
(i__main__
LineCounts
p922
(dp923
g799
I0
sg800
I0
sg801
I0
sg802
I0
sg17
I1457
sg803
I0
sg804
I0
sbsg12
S'1.17'
p924
sg18
S'D:\\Projects\\TXV_DRIVER\\drv_MQSimulator'
p925
sba(i__main__
DirectoryToProcess
p926
(dp927
g8
g805
sg10
S'drv_msg_lib'
p928
sg796
g792
sg14
(i__main__
LineCounts
p929
(dp930
g799
I0
sg800
I0
sg801
I0
sg802
I0
sg17
I5693
sg803
I0
sg804
I0
sbsg12
S'1.18'
p931
sg18
S'D:\\Projects\\TXV_DRIVER\\drv_msg_lib'
p932
sba(i__main__
DirectoryToProcess
p933
(dp934
g8
g805
sg10
S'drv_opc'
p935
sg796
g792
sg14
(i__main__
LineCounts
p936
(dp937
g799
I0
sg800
I0
sg801
I0
sg802
I0
sg17
I7456
sg803
I0
sg804
I0
sbsg12
S'1.20'
p938
sg18
S'D:\\Projects\\TXV_DRIVER\\drv_opc'
p939
sba(i__main__
DirectoryToProcess
p940
(dp941
g8
g805
sg10
S'drv_Parking'
p942
sg796
g792
sg14
(i__main__
LineCounts
p943
(dp944
g799
I0
sg800
I0
sg801
I0
sg802
I0
sg17
I1919
sg803
I0
sg804
I0
sbsg12
S'1.21'
p945
sg18
S'D:\\Projects\\TXV_DRIVER\\drv_Parking'
p946
sba(i__main__
DirectoryToProcess
p947
(dp948
g8
g805
sg10
S'drv_PDA'
p949
sg796
g792
sg14
(i__main__
LineCounts
p950
(dp951
g799
I0
sg800
I0
sg801
I0
sg802
I0
sg17
I6045
sg803
I0
sg804
I0
sbsg12
S'1.22'
p952
sg18
S'D:\\Projects\\TXV_DRIVER\\drv_PDA'
p953
sba(i__main__
DirectoryToProcess
p954
(dp955
g8
g805
sg10
S'drv_prom'
p956
sg796
g792
sg14
(i__main__
LineCounts
p957
(dp958
g799
I0
sg800
I0
sg801
I0
sg802
I0
sg17
I15878
sg803
I0
sg804
I0
sbsg12
S'1.23'
p959
sg18
S'D:\\Projects\\TXV_DRIVER\\drv_prom'
p960
sba(i__main__
DirectoryToProcess
p961
(dp962
g8
g805
sg10
S'drv_prom_P'
p963
sg796
g792
sg14
(i__main__
LineCounts
p964
(dp965
g799
I0
sg800
I0
sg801
I0
sg802
I0
sg17
I47234
sg803
I0
sg804
I0
sbsg12
S'1.24'
p966
sg18
S'D:\\Projects\\TXV_DRIVER\\drv_prom_P'
p967
sba(i__main__
DirectoryToProcess
p968
(dp969
g8
g805
sg10
S'drv_PTM'
p970
sg796
g792
sg14
(i__main__
LineCounts
p971
(dp972
g799
I0
sg800
I0
sg801
I0
sg802
I0
sg17
I3574
sg803
I0
sg804
I0
sbsg12
S'1.25'
p973
sg18
S'D:\\Projects\\TXV_DRIVER\\drv_PTM'
p974
sba(i__main__
DirectoryToProcess
p975
(dp976
g8
g805
sg10
S'drv_Quercus'
p977
sg796
g792
sg14
(i__main__
LineCounts
p978
(dp979
g799
I0
sg800
I0
sg801
I0
sg802
I0
sg17
I4257
sg803
I0
sg804
I0
sbsg12
S'1.26'
p980
sg18
S'D:\\Projects\\TXV_DRIVER\\drv_Quercus'
p981
sba(i__main__
DirectoryToProcess
p982
(dp983
g8
g805
sg10
S'drv_Raktel'
p984
sg796
g792
sg14
(i__main__
LineCounts
p985
(dp986
g799
I0
sg800
I0
sg801
I0
sg802
I0
sg17
I39953
sg803
I0
sg804
I0
sbsg12
S'1.27'
p987
sg18
S'D:\\Projects\\TXV_DRIVER\\drv_Raktel'
p988
sba(i__main__
DirectoryToProcess
p989
(dp990
g8
g805
sg10
S'drv_Raktel_Simulator'
p991
sg796
g792
sg14
(i__main__
LineCounts
p992
(dp993
g799
I0
sg800
I0
sg801
I0
sg802
I0
sg17
I0
sg803
I0
sg804
I0
sbsg12
S'1.28'
p994
sg18
S'D:\\Projects\\TXV_DRIVER\\drv_Raktel_Simulator'
p995
sba(i__main__
DirectoryToProcess
p996
(dp997
g8
g805
sg10
S'drv_Repository'
p998
sg796
g792
sg14
(i__main__
LineCounts
p999
(dp1000
g799
I0
sg800
I0
sg801
I0
sg802
I0
sg17
I3059
sg803
I0
sg804
I0
sbsg12
S'1.29'
p1001
sg18
S'D:\\Projects\\TXV_DRIVER\\drv_Repository'
p1002
sba(i__main__
DirectoryToProcess
p1003
(dp1004
g8
g805
sg10
S'drv_SCATS'
p1005
sg796
g792
sg14
(i__main__
LineCounts
p1006
(dp1007
g799
I0
sg800
I0
sg801
I0
sg802
I0
sg17
I6631
sg803
I0
sg804
I0
sbsg12
S'1.30'
p1008
sg18
S'D:\\Projects\\TXV_DRIVER\\drv_SCATS'
p1009
sba(i__main__
DirectoryToProcess
p1010
(dp1011
g8
g805
sg10
S'drv_sepura'
p1012
sg796
g792
sg14
(i__main__
LineCounts
p1013
(dp1014
g799
I0
sg800
I0
sg801
I0
sg802
I0
sg17
I3393
sg803
I0
sg804
I0
sbsg12
S'1.31'
p1015
sg18
S'D:\\Projects\\TXV_DRIVER\\drv_sepura'
p1016
sba(i__main__
DirectoryToProcess
p1017
(dp1018
g8
g805
sg10
S'drv_SipPhone'
p1019
sg796
g792
sg14
(i__main__
LineCounts
p1020
(dp1021
g799
I0
sg800
I0
sg801
I0
sg802
I0
sg17
I3707
sg803
I0
sg804
I0
sbsg12
S'1.32'
p1022
sg18
S'D:\\Projects\\TXV_DRIVER\\drv_SipPhone'
p1023
sba(i__main__
DirectoryToProcess
p1024
(dp1025
g8
g805
sg10
S'drv_snmp'
p1026
sg796
g792
sg14
(i__main__
LineCounts
p1027
(dp1028
g799
I0
sg800
I0
sg801
I0
sg802
I0
sg17
I4791
sg803
I0
sg804
I0
sbsg12
S'1.33'
p1029
sg18
S'D:\\Projects\\TXV_DRIVER\\drv_snmp'
p1030
sba(i__main__
DirectoryToProcess
p1031
(dp1032
g8
g805
sg10
S'drv_tps'
p1033
sg796
g792
sg14
(i__main__
LineCounts
p1034
(dp1035
g799
I0
sg800
I0
sg801
I0
sg802
I0
sg17
I34380
sg803
I0
sg804
I0
sbsg12
S'1.34'
p1036
sg18
S'D:\\Projects\\TXV_DRIVER\\drv_tps\\trunk'
p1037
sba(i__main__
DirectoryToProcess
p1038
(dp1039
g8
g805
sg10
S'drv_Traficon'
p1040
sg796
g792
sg14
(i__main__
LineCounts
p1041
(dp1042
g799
I0
sg800
I0
sg801
I0
sg802
I0
sg17
I2242
sg803
I0
sg804
I0
sbsg12
S'1.35'
p1043
sg18
S'D:\\Projects\\TXV_DRIVER\\drv_Traficon'
p1044
sba(i__main__
DirectoryToProcess
p1045
(dp1046
g8
g805
sg10
S'drv_VBA'
p1047
sg796
g792
sg14
(i__main__
LineCounts
p1048
(dp1049
g799
I0
sg800
I0
sg801
I0
sg802
I0
sg17
I4121
sg803
I0
sg804
I0
sbsg12
S'1.36'
p1050
sg18
S'D:\\Projects\\TXV_DRIVER\\drv_VBA'
p1051
sba(i__main__
DirectoryToProcess
p1052
(dp1053
g8
g805
sg10
S'drv_Vidos'
p1054
sg796
g792
sg14
(i__main__
LineCounts
p1055
(dp1056
g799
I0
sg800
I0
sg801
I0
sg802
I0
sg17
I311
sg803
I0
sg804
I0
sbsg12
S'1.37'
p1057
sg18
S'D:\\Projects\\TXV_DRIVER\\drv_Vidos'
p1058
sba(i__main__
DirectoryToProcess
p1059
(dp1060
g8
g805
sg10
S'drv_vmatrix'
p1061
sg796
g792
sg14
(i__main__
LineCounts
p1062
(dp1063
g799
I0
sg800
I0
sg801
I0
sg802
I0
sg17
I3938
sg803
I0
sg804
I0
sbsg12
S'1.38'
p1064
sg18
S'D:\\Projects\\TXV_DRIVER\\drv_vmatrix'
p1065
sba(i__main__
DirectoryToProcess
p1066
(dp1067
g8
g805
sg10
S'drv_voip_pbx'
p1068
sg796
g792
sg14
(i__main__
LineCounts
p1069
(dp1070
g799
I0
sg800
I0
sg801
I0
sg802
I0
sg17
I83591
sg803
I0
sg804
I0
sbsg12
S'1.39'
p1071
sg18
S'D:\\Projects\\TXV_DRIVER\\drv_voip_pbx'
p1072
sba(i__main__
DirectoryToProcess
p1073
(dp1074
g8
g805
sg10
S'drv_voip_tps'
p1075
sg796
g792
sg14
(i__main__
LineCounts
p1076
(dp1077
g799
I0
sg800
I0
sg801
I0
sg802
I0
sg17
I7492
sg803
I0
sg804
I0
sbsg12
S'1.40'
p1078
sg18
S'D:\\Projects\\TXV_DRIVER\\drv_voip_tps'
p1079
sba(i__main__
DirectoryToProcess
p1080
(dp1081
g8
g805
sg10
S'drv_Win32Sys'
p1082
sg796
g792
sg14
(i__main__
LineCounts
p1083
(dp1084
g799
I0
sg800
I0
sg801
I0
sg802
I0
sg17
I3210
sg803
I0
sg804
I0
sbsg12
S'1.41'
p1085
sg18
S'D:\\Projects\\TXV_DRIVER\\drv_Win32Sys'
p1086
sba(i__main__
DirectoryToProcess
p1087
(dp1088
g8
g805
sg10
S'mTPC'
p1089
sg796
g792
sg14
(i__main__
LineCounts
p1090
(dp1091
g799
I0
sg800
I0
sg801
I0
sg802
I0
sg17
I53751
sg803
I0
sg804
I0
sbsg12
S'1.42'
p1092
sg18
S'D:\\Projects\\TXV_DRIVER\\mTPC\\trunk'
p1093
sba(i__main__
DirectoryToProcess
p1094
(dp1095
g8
g805
sg10
S'txv_auto_rad'
p1096
sg796
g792
sg14
(i__main__
LineCounts
p1097
(dp1098
g799
I0
sg800
I0
sg801
I0
sg802
I0
sg17
I12306
sg803
I0
sg804
I0
sbsg12
S'1.43'
p1099
sg18
S'D:\\Projects\\TXV_DRIVER\\txv_auto_rad'
p1100
sba(i__main__
DirectoryToProcess
p1101
(dp1102
g8
g805
sg10
S'txv_Bridge'
p1103
sg796
g792
sg14
(i__main__
LineCounts
p1104
(dp1105
g799
I0
sg800
I0
sg801
I0
sg802
I0
sg17
I2671
sg803
I0
sg804
I0
sbsg12
S'1.44'
p1106
sg18
S'D:\\Projects\\TXV_DRIVER\\txv_Bridge'
p1107
sba(i__main__
DirectoryToProcess
p1108
(dp1109
g8
g805
sg10
S'txv_california'
p1110
sg796
g792
sg14
(i__main__
LineCounts
p1111
(dp1112
g799
I0
sg800
I0
sg801
I0
sg802
I0
sg17
I855
sg803
I0
sg804
I0
sbsg12
S'1.45'
p1113
sg18
S'D:\\Projects\\TXV_DRIVER\\txv_california'
p1114
sba(i__main__
DirectoryToProcess
p1115
(dp1116
g8
g805
sg10
S'txv_wavetronix'
p1117
sg796
g792
sg14
(i__main__
LineCounts
p1118
(dp1119
g799
I0
sg800
I0
sg801
I0
sg802
I0
sg17
I9051
sg803
I0
sg804
I0
sbsg12
S'1.46'
p1120
sg18
S'D:\\Projects\\TXV_DRIVER\\txv_wavetronix'
p1121
sba(i__main__
DirectoryToProcess
p1122
(dp1123
g8
S'-1'
p1124
sg10
S'TXV_PLATFORM'
p1125
sg796
Nsg14
(i__main__
LineCounts
p1126
(dp1127
g799
I0
sg800
I0
sg801
I0
sg802
I0
sg17
I1208931
sg803
I0
sg804
I0
sbsg12
S'2'
p1128
sg18
S'D:\\Projects\\TXV_PLATFORM\\trunk'
p1129
sba(i__main__
DirectoryToProcess
p1130
(dp1131
g8
g1128
sg10
S'Alarm_Management'
p1132
sg796
g1122
sg14
(i__main__
LineCounts
p1133
(dp1134
g799
I0
sg800
I0
sg801
I0
sg802
I0
sg17
I0
sg803
I0
sg804
I0
sbsg12
S'2.1'
p1135
sg18
S'D:\\Projects\\TXV_PLATFORM\\trunk\\Alarm Management'
p1136
sba(i__main__
DirectoryToProcess
p1137
(dp1138
g8
g1128
sg10
S'AVL'
p1139
sg796
g1122
sg14
(i__main__
LineCounts
p1140
(dp1141
g799
I0
sg800
I0
sg801
I0
sg802
I0
sg17
I0
sg803
I0
sg804
I0
sbsg12
S'2.2'
p1142
sg18
S'D:\\Projects\\TXV_PLATFORM\\trunk\\AVL'
p1143
sba(i__main__
DirectoryToProcess
p1144
(dp1145
g8
g1128
sg10
S'Base'
p1146
sg796
g1122
sg14
(i__main__
LineCounts
p1147
(dp1148
g799
I0
sg800
I0
sg801
I0
sg802
I0
sg17
I110296
sg803
I0
sg804
I0
sbsg12
S'2.3'
p1149
sg18
S'D:\\Projects\\TXV_PLATFORM\\trunk\\Base'
p1150
sba(i__main__
DirectoryToProcess
p1151
(dp1152
g8
g1128
sg10
S'Common'
p1153
sg796
g1122
sg14
(i__main__
LineCounts
p1154
(dp1155
g799
I0
sg800
I0
sg801
I0
sg802
I0
sg17
I162217
sg803
I0
sg804
I0
sbsg12
S'2.4'
p1156
sg18
S'D:\\Projects\\TXV_PLATFORM\\trunk\\Common'
p1157
sba(i__main__
DirectoryToProcess
p1158
(dp1159
g8
g1128
sg10
S'Designer'
p1160
sg796
g1122
sg14
(i__main__
LineCounts
p1161
(dp1162
g799
I0
sg800
I0
sg801
I0
sg802
I0
sg17
I296141
sg803
I0
sg804
I0
sbsg12
S'2.5'
p1163
sg18
S'D:\\Projects\\TXV_PLATFORM\\trunk\\Designer'
p1164
sba(i__main__
DirectoryToProcess
p1165
(dp1166
g8
g1128
sg10
S'Device_Library'
p1167
sg796
g1122
sg14
(i__main__
LineCounts
p1168
(dp1169
g799
I0
sg800
I0
sg801
I0
sg802
I0
sg17
I135360
sg803
I0
sg804
I0
sbsg12
S'2.6'
p1170
sg18
S'D:\\Projects\\TXV_PLATFORM\\trunk\\Device Library'
p1171
sba(i__main__
DirectoryToProcess
p1172
(dp1173
g8
g1128
sg10
S'Device_Simulator'
p1174
sg796
g1122
sg14
(i__main__
LineCounts
p1175
(dp1176
g799
I0
sg800
I0
sg801
I0
sg802
I0
sg17
I3079
sg803
I0
sg804
I0
sbsg12
S'2.7'
p1177
sg18
S'D:\\Projects\\TXV_PLATFORM\\trunk\\Device Simulator'
p1178
sba(i__main__
DirectoryToProcess
p1179
(dp1180
g8
g1128
sg10
S'GUI'
p1181
sg796
g1122
sg14
(i__main__
LineCounts
p1182
(dp1183
g799
I0
sg800
I0
sg801
I0
sg802
I0
sg17
I385726
sg803
I0
sg804
I0
sbsg12
S'2.8'
p1184
sg18
S'D:\\Projects\\TXV_PLATFORM\\trunk\\GUI'
p1185
sba(i__main__
DirectoryToProcess
p1186
(dp1187
g8
g1128
sg10
S'IM'
p1188
sg796
g1122
sg14
(i__main__
LineCounts
p1189
(dp1190
g799
I0
sg800
I0
sg801
I0
sg802
I0
sg17
I0
sg803
I0
sg804
I0
sbsg12
S'2.9'
p1191
sg18
S'D:\\Projects\\TXV_PLATFORM\\trunk\\IM'
p1192
sba(i__main__
DirectoryToProcess
p1193
(dp1194
g8
g1128
sg10
S'LED'
p1195
sg796
g1122
sg14
(i__main__
LineCounts
p1196
(dp1197
g799
I0
sg800
I0
sg801
I0
sg802
I0
sg17
I0
sg803
I0
sg804
I0
sbsg12
S'2.10'
p1198
sg18
S'D:\\Projects\\TXV_PLATFORM\\trunk\\LED'
p1199
sba(i__main__
DirectoryToProcess
p1200
(dp1201
g8
g1128
sg10
S'Parking'
p1202
sg796
g1122
sg14
(i__main__
LineCounts
p1203
(dp1204
g799
I0
sg800
I0
sg801
I0
sg802
I0
sg17
I0
sg803
I0
sg804
I0
sbsg12
S'2.11'
p1205
sg18
S'D:\\Projects\\TXV_PLATFORM\\trunk\\Parking'
p1206
sba(i__main__
DirectoryToProcess
p1207
(dp1208
g8
g1128
sg10
S'PTM'
p1209
sg796
g1122
sg14
(i__main__
LineCounts
p1210
(dp1211
g799
I0
sg800
I0
sg801
I0
sg802
I0
sg17
I0
sg803
I0
sg804
I0
sbsg12
S'2.12'
p1212
sg18
S'D:\\Projects\\TXV_PLATFORM\\trunk\\PTM'
p1213
sba(i__main__
DirectoryToProcess
p1214
(dp1215
g8
g1128
sg10
S'RWIS'
p1216
sg796
g1122
sg14
(i__main__
LineCounts
p1217
(dp1218
g799
I0
sg800
I0
sg801
I0
sg802
I0
sg17
I0
sg803
I0
sg804
I0
sbsg12
S'2.13'
p1219
sg18
S'D:\\Projects\\TXV_PLATFORM\\trunk\\RWIS'
p1220
sba(i__main__
DirectoryToProcess
p1221
(dp1222
g8
g1128
sg10
S'SCATS'
p1223
sg796
g1122
sg14
(i__main__
LineCounts
p1224
(dp1225
g799
I0
sg800
I0
sg801
I0
sg802
I0
sg17
I0
sg803
I0
sg804
I0
sbsg12
S'2.14'
p1226
sg18
S'D:\\Projects\\TXV_PLATFORM\\trunk\\SCATS'
p1227
sba(i__main__
DirectoryToProcess
p1228
(dp1229
g8
g1128
sg10
S'TTP'
p1230
sg796
g1122
sg14
(i__main__
LineCounts
p1231
(dp1232
g799
I0
sg800
I0
sg801
I0
sg802
I0
sg17
I0
sg803
I0
sg804
I0
sbsg12
S'2.15'
p1233
sg18
S'D:\\Projects\\TXV_PLATFORM\\trunk\\TTP'
p1234
sba(i__main__
DirectoryToProcess
p1235
(dp1236
g8
g1128
sg10
S'TVIS'
p1237
sg796
g1122
sg14
(i__main__
LineCounts
p1238
(dp1239
g799
I0
sg800
I0
sg801
I0
sg802
I0
sg17
I116112
sg803
I0
sg804
I0
sbsg12
S'2.16'
p1240
sg18
S'D:\\Projects\\TXV_PLATFORM\\trunk\\TVIS'
p1241
sba(i__main__
DirectoryToProcess
p1242
(dp1243
g8
S'-1'
p1244
sg10
S'TXV_CLIENT'
p1245
sg796
Nsg14
(i__main__
LineCounts
p1246
(dp1247
g799
I0
sg800
I0
sg801
I0
sg802
I0
sg17
I1216333
sg803
I0
sg804
I0
sbsg12
S'3'
p1248
sg18
S'D:\\Projects\\TXV_CLIENT'
p1249
sba(i__main__
DirectoryToProcess
p1250
(dp1251
g8
g1248
sg10
S'AutomationServer'
p1252
sg796
g1242
sg14
(i__main__
LineCounts
p1253
(dp1254
g799
I0
sg800
I0
sg801
I0
sg802
I0
sg17
I13285
sg803
I0
sg804
I0
sbsg12
S'3.1'
p1255
sg18
S'D:\\Projects\\TXV_CLIENT\\AutomationServer'
p1256
sba(i__main__
DirectoryToProcess
p1257
(dp1258
g8
g1248
sg10
S'DataIntegrity'
p1259
sg796
g1242
sg14
(i__main__
LineCounts
p1260
(dp1261
g799
I0
sg800
I0
sg801
I0
sg802
I0
sg17
I0
sg803
I0
sg804
I0
sbsg12
S'3.2'
p1262
sg18
S'D:\\Projects\\TXV_CLIENT\\DataIntegrity'
p1263
sba(i__main__
DirectoryToProcess
p1264
(dp1265
g8
g1248
sg10
S'NTCIP_C2C'
p1266
sg796
g1242
sg14
(i__main__
LineCounts
p1267
(dp1268
g799
I0
sg800
I0
sg801
I0
sg802
I0
sg17
I68908
sg803
I0
sg804
I0
sbsg12
S'3.3'
p1269
sg18
S'D:\\Projects\\TXV_CLIENT\\NTCIP_C2C'
p1270
sba(i__main__
DirectoryToProcess
p1271
(dp1272
g8
g1248
sg10
S'NTCIP_C2F'
p1273
sg796
g1242
sg14
(i__main__
LineCounts
p1274
(dp1275
g799
I0
sg800
I0
sg801
I0
sg802
I0
sg17
I78766
sg803
I0
sg804
I0
sbsg12
S'3.4'
p1276
sg18
S'D:\\Projects\\TXV_CLIENT\\NTCIP_C2F'
p1277
sba(i__main__
DirectoryToProcess
p1278
(dp1279
g8
g1248
sg10
S'OM_Interface'
p1280
sg796
g1242
sg14
(i__main__
LineCounts
p1281
(dp1282
g799
I0
sg800
I0
sg801
I0
sg802
I0
sg17
I6155
sg803
I0
sg804
I0
sbsg12
S'3.5'
p1283
sg18
S'D:\\Projects\\TXV_CLIENT\\OM_Interface'
p1284
sba(i__main__
DirectoryToProcess
p1285
(dp1286
g8
g1248
sg10
S'ScenarioManager2'
p1287
sg796
g1242
sg14
(i__main__
LineCounts
p1288
(dp1289
g799
I0
sg800
I0
sg801
I0
sg802
I0
sg17
I114614
sg803
I0
sg804
I0
sbsg12
S'3.6'
p1290
sg18
S'D:\\Projects\\TXV_CLIENT\\ScenarioManager2'
p1291
sba(i__main__
DirectoryToProcess
p1292
(dp1293
g8
g1248
sg10
S'scenario_manager'
p1294
sg796
g1242
sg14
(i__main__
LineCounts
p1295
(dp1296
g799
I0
sg800
I0
sg801
I0
sg802
I0
sg17
I7063
sg803
I0
sg804
I0
sbsg12
S'3.7'
p1297
sg18
S'D:\\Projects\\TXV_CLIENT\\scenario_manager'
p1298
sba(i__main__
DirectoryToProcess
p1299
(dp1300
g8
g1248
sg10
S'SpeedEnforcement'
p1301
sg796
g1242
sg14
(i__main__
LineCounts
p1302
(dp1303
g799
I0
sg800
I0
sg801
I0
sg802
I0
sg17
I8436
sg803
I0
sg804
I0
sbsg12
S'3.8'
p1304
sg18
S'D:\\Projects\\TXV_CLIENT\\SpeedEnforcement\\trunk\\src'
p1305
sba(i__main__
DirectoryToProcess
p1306
(dp1307
g8
g1248
sg10
S'test_app'
p1308
sg796
g1242
sg14
(i__main__
LineCounts
p1309
(dp1310
g799
I0
sg800
I0
sg801
I0
sg802
I0
sg17
I5788
sg803
I0
sg804
I0
sbsg12
S'3.9'
p1311
sg18
S'D:\\Projects\\TXV_CLIENT\\test_app'
p1312
sba(i__main__
DirectoryToProcess
p1313
(dp1314
g8
g1248
sg10
S'tXv_PDA_App'
p1315
sg796
g1242
sg14
(i__main__
LineCounts
p1316
(dp1317
g799
I0
sg800
I0
sg801
I0
sg802
I0
sg17
I2932
sg803
I0
sg804
I0
sbsg12
S'3.10'
p1318
sg18
S'D:\\Projects\\TXV_CLIENT\\tXv PDA App'
p1319
sba(i__main__
DirectoryToProcess
p1320
(dp1321
g8
g1248
sg10
S'TXV_DATEX2'
p1322
sg796
g1242
sg14
(i__main__
LineCounts
p1323
(dp1324
g799
I0
sg800
I0
sg801
I0
sg802
I0
sg17
I100538
sg803
I0
sg804
I0
sbsg12
S'3.11'
p1325
sg18
S'D:\\Projects\\TXV_CLIENT\\TXV_DATEX2'
p1326
sba(i__main__
DirectoryToProcess
p1327
(dp1328
g8
g1248
sg10
S'TXV_GUI_1'
p1329
sg796
g1242
sg14
(i__main__
LineCounts
p1330
(dp1331
g799
I0
sg800
I0
sg801
I0
sg802
I0
sg17
I565454
sg803
I0
sg804
I0
sbsg12
S'3.12'
p1332
sg18
S'D:\\Projects\\TXV_CLIENT\\TXV_GUI'
p1333
sba(i__main__
DirectoryToProcess
p1334
(dp1335
g8
g1248
sg10
S'TXV_SERVICE'
p1336
sg796
g1242
sg14
(i__main__
LineCounts
p1337
(dp1338
g799
I0
sg800
I0
sg801
I0
sg802
I0
sg17
I2506
sg803
I0
sg804
I0
sbsg12
S'3.13'
p1339
sg18
S'D:\\Projects\\TXV_CLIENT\\TXV_SERVICE'
p1340
sba(i__main__
DirectoryToProcess
p1341
(dp1342
g8
g1248
sg10
S'TXV_TFP'
p1343
sg796
g1242
sg14
(i__main__
LineCounts
p1344
(dp1345
g799
I0
sg800
I0
sg801
I0
sg802
I0
sg17
I235251
sg803
I0
sg804
I0
sbsg12
S'3.14'
p1346
sg18
S'D:\\Projects\\TXV_CLIENT\\TXV_TFP'
p1347
sba(i__main__
DirectoryToProcess
p1348
(dp1349
g8
g1248
sg10
S'TXV_TTPRo'
p1350
sg796
g1242
sg14
(i__main__
LineCounts
p1351
(dp1352
g799
I0
sg800
I0
sg801
I0
sg802
I0
sg17
I6637
sg803
I0
sg804
I0
sbsg12
S'3.15'
p1353
sg18
S'D:\\Projects\\TXV_CLIENT\\TXV_TTPRo'
p1354
sba(i__main__
DirectoryToProcess
p1355
(dp1356
g8
S'-1'
p1357
sg10
S'TXV_CORE'
p1358
sg796
Nsg14
(i__main__
LineCounts
p1359
(dp1360
g799
I0
sg800
I0
sg801
I0
sg802
I0
sg17
I104466
sg803
I0
sg804
I0
sbsg12
S'4'
p1361
sg18
S'D:\\Projects\\TXV_CORE'
p1362
sba(i__main__
DirectoryToProcess
p1363
(dp1364
g8
g1361
sg10
S'C_LIBRARY'
p1365
sg796
g1355
sg14
(i__main__
LineCounts
p1366
(dp1367
g799
I0
sg800
I0
sg801
I0
sg802
I0
sg17
I27961
sg803
I0
sg804
I0
sbsg12
S'4.1'
p1368
sg18
S'D:\\Projects\\TXV_CORE\\C_LIBRARY'
p1369
sba(i__main__
DirectoryToProcess
p1370
(dp1371
g8
g1361
sg10
S'C_LIBRARY-branch-datasequencing'
p1372
sg796
g1355
sg14
(i__main__
LineCounts
p1373
(dp1374
g799
I0
sg800
I0
sg801
I0
sg802
I0
sg17
I0
sg803
I0
sg804
I0
sbsg12
S'4.2'
p1375
sg18
S'D:\\Projects\\TXV_CORE\\C_LIBRARY-branch-datasequencing'
p1376
sba(i__main__
DirectoryToProcess
p1377
(dp1378
g8
g1361
sg10
S'historian'
p1379
sg796
g1355
sg14
(i__main__
LineCounts
p1380
(dp1381
g799
I0
sg800
I0
sg801
I0
sg802
I0
sg17
I11607
sg803
I0
sg804
I0
sbsg12
S'4.3'
p1382
sg18
S'D:\\Projects\\TXV_CORE\\historian\\trunk'
p1383
sba(i__main__
DirectoryToProcess
p1384
(dp1385
g8
g1361
sg10
S'tXv_Jezgra'
p1386
sg796
g1355
sg14
(i__main__
LineCounts
p1387
(dp1388
g799
I0
sg800
I0
sg801
I0
sg802
I0
sg17
I43858
sg803
I0
sg804
I0
sbsg12
S'4.4'
p1389
sg18
S'D:\\Projects\\TXV_CORE\\tXv Jezgra'
p1390
sba(i__main__
DirectoryToProcess
p1391
(dp1392
g8
g1361
sg10
S'txv_Filter_HR'
p1393
sg796
g1355
sg14
(i__main__
LineCounts
p1394
(dp1395
g799
I0
sg800
I0
sg801
I0
sg802
I0
sg17
I2651
sg803
I0
sg804
I0
sbsg12
S'4.5'
p1396
sg18
S'D:\\Projects\\TXV_CORE\\txv_Filter_HR'
p1397
sba(i__main__
DirectoryToProcess
p1398
(dp1399
g8
g1361
sg10
S'UserRights'
p1400
sg796
g1355
sg14
(i__main__
LineCounts
p1401
(dp1402
g799
I0
sg800
I0
sg801
I0
sg802
I0
sg17
I18389
sg803
I0
sg804
I0
sbsg12
S'4.6'
p1403
sg18
S'D:\\Projects\\TXV_CORE\\UserRights'
p1404
sba(i__main__
DirectoryToProcess
p1405
(dp1406
g8
S'-1'
p1407
sg10
S'TXV_VIDEO'
p1408
sg796
Nsg14
(i__main__
LineCounts
p1409
(dp1410
g799
I0
sg800
I0
sg801
I0
sg802
I0
sg17
I0
sg803
I0
sg804
I0
sbsg12
S'5'
p1411
sg18
S'D:\\Projects\\TXV_VIDEO'
p1412
sba(i__main__
DirectoryToProcess
p1413
(dp1414
g8
g1411
sg10
S'drv_EyeConn'
p1415
sg796
g1405
sg14
(i__main__
LineCounts
p1416
(dp1417
g799
I0
sg800
I0
sg801
I0
sg802
I0
sg17
I0
sg803
I0
sg804
I0
sbsg12
S'5.1'
p1418
sg18
S'D:\\Projects\\TXV_VIDEO\\drv_EyeConn'
p1419
sba(i__main__
DirectoryToProcess
p1420
(dp1421
g8
g1411
sg10
S'drv_PTZ'
p1422
sg796
g1405
sg14
(i__main__
LineCounts
p1423
(dp1424
g799
I0
sg800
I0
sg801
I0
sg802
I0
sg17
I0
sg803
I0
sg804
I0
sbsg12
S'5.2'
p1425
sg18
S'D:\\Projects\\TXV_VIDEO\\drv_PTZ'
p1426
sba(i__main__
DirectoryToProcess
p1427
(dp1428
g8
g1411
sg10
S'drv_VideoTPS'
p1429
sg796
g1405
sg14
(i__main__
LineCounts
p1430
(dp1431
g799
I0
sg800
I0
sg801
I0
sg802
I0
sg17
I0
sg803
I0
sg804
I0
sbsg12
S'5.3'
p1432
sg18
S'D:\\Projects\\TXV_VIDEO\\drv_VideoTPS'
p1433
sba(i__main__
DirectoryToProcess
p1434
(dp1435
g8
g1411
sg10
S'KeyboardDriver'
p1436
sg796
g1405
sg14
(i__main__
LineCounts
p1437
(dp1438
g799
I0
sg800
I0
sg801
I0
sg802
I0
sg17
I0
sg803
I0
sg804
I0
sbsg12
S'5.4'
p1439
sg18
S'D:\\Projects\\TXV_VIDEO\\KeyboardDriver'
p1440
sba(i__main__
DirectoryToProcess
p1441
(dp1442
g8
g1411
sg10
S'NVR'
p1443
sg796
g1405
sg14
(i__main__
LineCounts
p1444
(dp1445
g799
I0
sg800
I0
sg801
I0
sg802
I0
sg17
I0
sg803
I0
sg804
I0
sbsg12
S'5.5'
p1446
sg18
S'D:\\Projects\\TXV_VIDEO\\NVR'
p1447
sba(i__main__
DirectoryToProcess
p1448
(dp1449
g8
g1411
sg10
S'NVRConnDLL'
p1450
sg796
g1405
sg14
(i__main__
LineCounts
p1451
(dp1452
g799
I0
sg800
I0
sg801
I0
sg802
I0
sg17
I0
sg803
I0
sg804
I0
sbsg12
S'5.6'
p1453
sg18
S'D:\\Projects\\TXV_VIDEO\\NVRConnDLL'
p1454
sba(i__main__
DirectoryToProcess
p1455
(dp1456
g8
g1411
sg10
S'NVRConsole'
p1457
sg796
g1405
sg14
(i__main__
LineCounts
p1458
(dp1459
g799
I0
sg800
I0
sg801
I0
sg802
I0
sg17
I0
sg803
I0
sg804
I0
sbsg12
S'5.7'
p1460
sg18
S'D:\\Projects\\TXV_VIDEO\\NVRConsole'
p1461
sba(i__main__
DirectoryToProcess
p1462
(dp1463
g8
g1411
sg10
S'VideoPlayer'
p1464
sg796
g1405
sg14
(i__main__
LineCounts
p1465
(dp1466
g799
I0
sg800
I0
sg801
I0
sg802
I0
sg17
I0
sg803
I0
sg804
I0
sbsg12
S'5.8'
p1467
sg18
S'D:\\Projects\\TXV_VIDEO\\VideoPlayer'
p1468
sba(i__main__
DirectoryToProcess
p1469
(dp1470
g8
S'-1'
p1471
sg10
S'TXV_INTERNAL'
p1472
sg796
Nsg14
(i__main__
LineCounts
p1473
(dp1474
g799
I0
sg800
I0
sg801
I0
sg802
I0
sg17
I44362
sg803
I0
sg804
I0
sbsg12
S'6'
p1475
sg18
S'D:\\Projects\\TXV_INTERNAL'
p1476
sba(i__main__
DirectoryToProcess
p1477
(dp1478
g8
g1475
sg10
S'Nemesis'
p1479
sg796
g1469
sg14
(i__main__
LineCounts
p1480
(dp1481
g799
I0
sg800
I0
sg801
I0
sg802
I0
sg17
I44362
sg803
I0
sg804
I0
sbsg12
S'6.1'
p1482
sg18
S'D:\\Projects\\TXV_INTERNAL\\Nemesis'
p1483
sbasg1
(S'\x07\xdb\x05\x18\x10\x18\x0e\x01\xc5 '
p1484
tp1485
Rp1486
(lp1487
(i__main__
DirectoryToProcess
p1488
(dp1489
g8
S'-1'
p1490
sg10
S'TXV_DRIVER'
p1491
sg796
Nsg14
(i__main__
LineCounts
p1492
(dp1493
g799
I0
sg800
I0
sg801
I0
sg802
I0
sg17
I423822
sg803
I0
sg804
I0
sbsg12
S'1'
p1494
sg18
S'D:\\Projects\\TXV_DRIVER'
p1495
sba(i__main__
DirectoryToProcess
p1496
(dp1497
g8
S'1'
p1498
sg10
S'Autoscope_driver'
p1499
sg796
g1488
sg14
(i__main__
LineCounts
p1500
(dp1501
g799
I0
sg800
I0
sg801
I0
sg802
I0
sg17
I10830
sg803
I0
sg804
I0
sbsg12
S'1.1'
p1502
sg18
S'D:\\Projects\\TXV_DRIVER\\drv_autoscope'
p1503
sba(i__main__
DirectoryToProcess
p1504
(dp1505
g8
S'1'
p1506
sg10
S'Autosense_driver'
p1507
sg796
g1488
sg14
(i__main__
LineCounts
p1508
(dp1509
g799
I0
sg800
I0
sg801
I0
sg802
I0
sg17
I5339
sg803
I0
sg804
I0
sbsg12
S'1.2'
p1510
sg18
S'D:\\Projects\\TXV_DRIVER\\drv_Autosense'
p1511
sba(i__main__
DirectoryToProcess
p1512
(dp1513
g8
S'1'
p1514
sg10
S'AVL_driver'
p1515
sg796
g1488
sg14
(i__main__
LineCounts
p1516
(dp1517
g799
I0
sg800
I0
sg801
I0
sg802
I0
sg17
I1180
sg803
I0
sg804
I0
sbsg12
S'1.3'
p1518
sg18
S'D:\\Projects\\TXV_DRIVER\\drv_AVL'
p1519
sba(i__main__
DirectoryToProcess
p1520
(dp1521
g8
S'1'
p1522
sg10
S'drv_bosch'
p1523
sg796
g1488
sg14
(i__main__
LineCounts
p1524
(dp1525
g799
I0
sg800
I0
sg801
I0
sg802
I0
sg17
I4120
sg803
I0
sg804
I0
sbsg12
S'1.4'
p1526
sg18
S'D:\\Projects\\TXV_DRIVER\\drv_bosch'
p1527
sba(i__main__
DirectoryToProcess
p1528
(dp1529
g8
S'1'
p1530
sg10
S'drv_dbsql'
p1531
sg796
g1488
sg14
(i__main__
LineCounts
p1532
(dp1533
g799
I0
sg800
I0
sg801
I0
sg802
I0
sg17
I8771
sg803
I0
sg804
I0
sbsg12
S'1.5'
p1534
sg18
S'D:\\Projects\\TXV_DRIVER\\drv_dbsql'
p1535
sba(i__main__
DirectoryToProcess
p1536
(dp1537
g8
S'1'
p1538
sg10
S'drv_dohvat'
p1539
sg796
g1488
sg14
(i__main__
LineCounts
p1540
(dp1541
g799
I0
sg800
I0
sg801
I0
sg802
I0
sg17
I3395
sg803
I0
sg804
I0
sbsg12
S'1.6'
p1542
sg18
S'D:\\Projects\\TXV_DRIVER\\drv_dohvat'
p1543
sba(i__main__
DirectoryToProcess
p1544
(dp1545
g8
S'1'
p1546
sg10
S'drv_enforcement'
p1547
sg796
g1488
sg14
(i__main__
LineCounts
p1548
(dp1549
g799
I0
sg800
I0
sg801
I0
sg802
I0
sg17
I6716
sg803
I0
sg804
I0
sbsg12
S'1.7'
p1550
sg18
S'D:\\Projects\\TXV_DRIVER\\drv_enforcement'
p1551
sba(i__main__
DirectoryToProcess
p1552
(dp1553
g8
S'1'
p1554
sg10
S'drv_eventmanager'
p1555
sg796
g1488
sg14
(i__main__
LineCounts
p1556
(dp1557
g799
I0
sg800
I0
sg801
I0
sg802
I0
sg17
I6939
sg803
I0
sg804
I0
sbsg12
S'1.8'
p1558
sg18
S'D:\\Projects\\TXV_DRIVER\\drv_eventmanager'
p1559
sba(i__main__
DirectoryToProcess
p1560
(dp1561
g8
S'1'
p1562
sg10
S'drv_FMS'
p1563
sg796
g1488
sg14
(i__main__
LineCounts
p1564
(dp1565
g799
I0
sg800
I0
sg801
I0
sg802
I0
sg17
I4242
sg803
I0
sg804
I0
sbsg12
S'1.9'
p1566
sg18
S'D:\\Projects\\TXV_DRIVER\\drv_FMS'
p1567
sba(i__main__
DirectoryToProcess
p1568
(dp1569
g8
S'1'
p1570
sg10
S'drv_GatsoGet'
p1571
sg796
g1488
sg14
(i__main__
LineCounts
p1572
(dp1573
g799
I0
sg800
I0
sg801
I0
sg802
I0
sg17
I2034
sg803
I0
sg804
I0
sbsg12
S'1.10'
p1574
sg18
S'D:\\Projects\\TXV_DRIVER\\drv_GatsoGet'
p1575
sba(i__main__
DirectoryToProcess
p1576
(dp1577
g8
S'1'
p1578
sg10
S'drv_GPRS'
p1579
sg796
g1488
sg14
(i__main__
LineCounts
p1580
(dp1581
g799
I0
sg800
I0
sg801
I0
sg802
I0
sg17
I5711
sg803
I0
sg804
I0
sbsg12
S'1.11'
p1582
sg18
S'D:\\Projects\\TXV_DRIVER\\drv_GPRS'
p1583
sba(i__main__
DirectoryToProcess
p1584
(dp1585
g8
S'1'
p1586
sg10
S'drv_gprs_tps'
p1587
sg796
g1488
sg14
(i__main__
LineCounts
p1588
(dp1589
g799
I0
sg800
I0
sg801
I0
sg802
I0
sg17
I6285
sg803
I0
sg804
I0
sbsg12
S'1.12'
p1590
sg18
S'D:\\Projects\\TXV_DRIVER\\drv_gprs_tps'
p1591
sba(i__main__
DirectoryToProcess
p1592
(dp1593
g8
S'1'
p1594
sg10
S'drv_IncidentManagement'
p1595
sg796
g1488
sg14
(i__main__
LineCounts
p1596
(dp1597
g799
I0
sg800
I0
sg801
I0
sg802
I0
sg17
I379
sg803
I0
sg804
I0
sbsg12
S'1.13'
p1598
sg18
S'D:\\Projects\\TXV_DRIVER\\drv_IncidentManagement'
p1599
sba(i__main__
DirectoryToProcess
p1600
(dp1601
g8
S'1'
p1602
sg10
S'drv_lpr'
p1603
sg796
g1488
sg14
(i__main__
LineCounts
p1604
(dp1605
g799
I0
sg800
I0
sg801
I0
sg802
I0
sg17
I1412
sg803
I0
sg804
I0
sbsg12
S'1.14'
p1606
sg18
S'D:\\Projects\\TXV_DRIVER\\drv_lpr'
p1607
sba(i__main__
DirectoryToProcess
p1608
(dp1609
g8
S'1'
p1610
sg10
S'drv_lpr_sim'
p1611
sg796
g1488
sg14
(i__main__
LineCounts
p1612
(dp1613
g799
I0
sg800
I0
sg801
I0
sg802
I0
sg17
I1276
sg803
I0
sg804
I0
sbsg12
S'1.15'
p1614
sg18
S'D:\\Projects\\TXV_DRIVER\\drv_lpr_sim'
p1615
sba(i__main__
DirectoryToProcess
p1616
(dp1617
g8
S'1'
p1618
sg10
S'drv_modbus'
p1619
sg796
g1488
sg14
(i__main__
LineCounts
p1620
(dp1621
g799
I0
sg800
I0
sg801
I0
sg802
I0
sg17
I16175
sg803
I0
sg804
I0
sbsg12
S'1.16'
p1622
sg18
S'D:\\Projects\\TXV_DRIVER\\drv_modbus'
p1623
sba(i__main__
DirectoryToProcess
p1624
(dp1625
g8
S'1'
p1626
sg10
S'drv_MQSimulator'
p1627
sg796
g1488
sg14
(i__main__
LineCounts
p1628
(dp1629
g799
I0
sg800
I0
sg801
I0
sg802
I0
sg17
I1254
sg803
I0
sg804
I0
sbsg12
S'1.17'
p1630
sg18
S'D:\\Projects\\TXV_DRIVER\\drv_MQSimulator'
p1631
sba(i__main__
DirectoryToProcess
p1632
(dp1633
g8
S'1'
p1634
sg10
S'drv_msg_lib'
p1635
sg796
g1488
sg14
(i__main__
LineCounts
p1636
(dp1637
g799
I0
sg800
I0
sg801
I0
sg802
I0
sg17
I5156
sg803
I0
sg804
I0
sbsg12
S'1.18'
p1638
sg18
S'D:\\Projects\\TXV_DRIVER\\drv_msg_lib'
p1639
sba(i__main__
DirectoryToProcess
p1640
(dp1641
g8
S'1'
p1642
sg10
S'drv_opc'
p1643
sg796
g1488
sg14
(i__main__
LineCounts
p1644
(dp1645
g799
I0
sg800
I0
sg801
I0
sg802
I0
sg17
I7526
sg803
I0
sg804
I0
sbsg12
S'1.20'
p1646
sg18
S'D:\\Projects\\TXV_DRIVER\\drv_opc'
p1647
sba(i__main__
DirectoryToProcess
p1648
(dp1649
g8
S'1'
p1650
sg10
S'drv_Parking'
p1651
sg796
g1488
sg14
(i__main__
LineCounts
p1652
(dp1653
g799
I0
sg800
I0
sg801
I0
sg802
I0
sg17
I1920
sg803
I0
sg804
I0
sbsg12
S'1.21'
p1654
sg18
S'D:\\Projects\\TXV_DRIVER\\drv_Parking'
p1655
sba(i__main__
DirectoryToProcess
p1656
(dp1657
g8
S'1'
p1658
sg10
S'drv_PDA'
p1659
sg796
g1488
sg14
(i__main__
LineCounts
p1660
(dp1661
g799
I0
sg800
I0
sg801
I0
sg802
I0
sg17
I4841
sg803
I0
sg804
I0
sbsg12
S'1.22'
p1662
sg18
S'D:\\Projects\\TXV_DRIVER\\drv_PDA'
p1663
sba(i__main__
DirectoryToProcess
p1664
(dp1665
g8
S'1'
p1666
sg10
S'drv_prom'
p1667
sg796
g1488
sg14
(i__main__
LineCounts
p1668
(dp1669
g799
I0
sg800
I0
sg801
I0
sg802
I0
sg17
I15878
sg803
I0
sg804
I0
sbsg12
S'1.23'
p1670
sg18
S'D:\\Projects\\TXV_DRIVER\\drv_prom'
p1671
sba(i__main__
DirectoryToProcess
p1672
(dp1673
g8
S'1'
p1674
sg10
S'drv_prom_P'
p1675
sg796
g1488
sg14
(i__main__
LineCounts
p1676
(dp1677
g799
I0
sg800
I0
sg801
I0
sg802
I0
sg17
I47234
sg803
I0
sg804
I0
sbsg12
S'1.24'
p1678
sg18
S'D:\\Projects\\TXV_DRIVER\\drv_prom_P'
p1679
sba(i__main__
DirectoryToProcess
p1680
(dp1681
g8
S'1'
p1682
sg10
S'drv_PTM'
p1683
sg796
g1488
sg14
(i__main__
LineCounts
p1684
(dp1685
g799
I0
sg800
I0
sg801
I0
sg802
I0
sg17
I3000
sg803
I0
sg804
I0
sbsg12
S'1.25'
p1686
sg18
S'D:\\Projects\\TXV_DRIVER\\drv_PTM'
p1687
sba(i__main__
DirectoryToProcess
p1688
(dp1689
g8
S'1'
p1690
sg10
S'drv_Quercus'
p1691
sg796
g1488
sg14
(i__main__
LineCounts
p1692
(dp1693
g799
I0
sg800
I0
sg801
I0
sg802
I0
sg17
I8460
sg803
I0
sg804
I0
sbsg12
S'1.26'
p1694
sg18
S'D:\\Projects\\TXV_DRIVER\\drv_Quercus'
p1695
sba(i__main__
DirectoryToProcess
p1696
(dp1697
g8
S'1'
p1698
sg10
S'drv_Raktel'
p1699
sg796
g1488
sg14
(i__main__
LineCounts
p1700
(dp1701
g799
I0
sg800
I0
sg801
I0
sg802
I0
sg17
I29198
sg803
I0
sg804
I0
sbsg12
S'1.27'
p1702
sg18
S'D:\\Projects\\TXV_DRIVER\\drv_Raktel'
p1703
sba(i__main__
DirectoryToProcess
p1704
(dp1705
g8
S'1'
p1706
sg10
S'drv_Raktel_Simulator'
p1707
sg796
g1488
sg14
(i__main__
LineCounts
p1708
(dp1709
g799
I0
sg800
I0
sg801
I0
sg802
I0
sg17
I6472
sg803
I0
sg804
I0
sbsg12
S'1.28'
p1710
sg18
S'D:\\Projects\\TXV_DRIVER\\drv_Raktel_Simulator'
p1711
sba(i__main__
DirectoryToProcess
p1712
(dp1713
g8
S'1'
p1714
sg10
S'drv_Repository'
p1715
sg796
g1488
sg14
(i__main__
LineCounts
p1716
(dp1717
g799
I0
sg800
I0
sg801
I0
sg802
I0
sg17
I3047
sg803
I0
sg804
I0
sbsg12
S'1.29'
p1718
sg18
S'D:\\Projects\\TXV_DRIVER\\drv_Repository'
p1719
sba(i__main__
DirectoryToProcess
p1720
(dp1721
g8
S'1'
p1722
sg10
S'drv_SCATS'
p1723
sg796
g1488
sg14
(i__main__
LineCounts
p1724
(dp1725
g799
I0
sg800
I0
sg801
I0
sg802
I0
sg17
I6631
sg803
I0
sg804
I0
sbsg12
S'1.30'
p1726
sg18
S'D:\\Projects\\TXV_DRIVER\\drv_SCATS'
p1727
sba(i__main__
DirectoryToProcess
p1728
(dp1729
g8
S'1'
p1730
sg10
S'drv_sepura'
p1731
sg796
g1488
sg14
(i__main__
LineCounts
p1732
(dp1733
g799
I0
sg800
I0
sg801
I0
sg802
I0
sg17
I3393
sg803
I0
sg804
I0
sbsg12
S'1.31'
p1734
sg18
S'D:\\Projects\\TXV_DRIVER\\drv_sepura'
p1735
sba(i__main__
DirectoryToProcess
p1736
(dp1737
g8
S'1'
p1738
sg10
S'drv_SipPhone'
p1739
sg796
g1488
sg14
(i__main__
LineCounts
p1740
(dp1741
g799
I0
sg800
I0
sg801
I0
sg802
I0
sg17
I4069
sg803
I0
sg804
I0
sbsg12
S'1.32'
p1742
sg18
S'D:\\Projects\\TXV_DRIVER\\drv_SipPhone'
p1743
sba(i__main__
DirectoryToProcess
p1744
(dp1745
g8
S'1'
p1746
sg10
S'drv_snmp'
p1747
sg796
g1488
sg14
(i__main__
LineCounts
p1748
(dp1749
g799
I0
sg800
I0
sg801
I0
sg802
I0
sg17
I3722
sg803
I0
sg804
I0
sbsg12
S'1.33'
p1750
sg18
S'D:\\Projects\\TXV_DRIVER\\drv_snmp'
p1751
sba(i__main__
DirectoryToProcess
p1752
(dp1753
g8
S'1'
p1754
sg10
S'drv_tps'
p1755
sg796
g1488
sg14
(i__main__
LineCounts
p1756
(dp1757
g799
I0
sg800
I0
sg801
I0
sg802
I0
sg17
I34380
sg803
I0
sg804
I0
sbsg12
S'1.34'
p1758
sg18
S'D:\\Projects\\TXV_DRIVER\\drv_tps\\trunk'
p1759
sba(i__main__
DirectoryToProcess
p1760
(dp1761
g8
S'1'
p1762
sg10
S'drv_Traficon'
p1763
sg796
g1488
sg14
(i__main__
LineCounts
p1764
(dp1765
g799
I0
sg800
I0
sg801
I0
sg802
I0
sg17
I2139
sg803
I0
sg804
I0
sbsg12
S'1.35'
p1766
sg18
S'D:\\Projects\\TXV_DRIVER\\drv_Traficon'
p1767
sba(i__main__
DirectoryToProcess
p1768
(dp1769
g8
S'1'
p1770
sg10
S'drv_VBA'
p1771
sg796
g1488
sg14
(i__main__
LineCounts
p1772
(dp1773
g799
I0
sg800
I0
sg801
I0
sg802
I0
sg17
I4121
sg803
I0
sg804
I0
sbsg12
S'1.36'
p1774
sg18
S'D:\\Projects\\TXV_DRIVER\\drv_VBA'
p1775
sba(i__main__
DirectoryToProcess
p1776
(dp1777
g8
S'1'
p1778
sg10
S'drv_Vidos'
p1779
sg796
g1488
sg14
(i__main__
LineCounts
p1780
(dp1781
g799
I0
sg800
I0
sg801
I0
sg802
I0
sg17
I309
sg803
I0
sg804
I0
sbsg12
S'1.37'
p1782
sg18
S'D:\\Projects\\TXV_DRIVER\\drv_Vidos'
p1783
sba(i__main__
DirectoryToProcess
p1784
(dp1785
g8
S'1'
p1786
sg10
S'drv_vmatrix'
p1787
sg796
g1488
sg14
(i__main__
LineCounts
p1788
(dp1789
g799
I0
sg800
I0
sg801
I0
sg802
I0
sg17
I3890
sg803
I0
sg804
I0
sbsg12
S'1.38'
p1790
sg18
S'D:\\Projects\\TXV_DRIVER\\drv_vmatrix'
p1791
sba(i__main__
DirectoryToProcess
p1792
(dp1793
g8
S'1'
p1794
sg10
S'drv_voip_pbx'
p1795
sg796
g1488
sg14
(i__main__
LineCounts
p1796
(dp1797
g799
I0
sg800
I0
sg801
I0
sg802
I0
sg17
I55662
sg803
I0
sg804
I0
sbsg12
S'1.39'
p1798
sg18
S'D:\\Projects\\TXV_DRIVER\\drv_voip_pbx'
p1799
sba(i__main__
DirectoryToProcess
p1800
(dp1801
g8
S'1'
p1802
sg10
S'drv_voip_tps'
p1803
sg796
g1488
sg14
(i__main__
LineCounts
p1804
(dp1805
g799
I0
sg800
I0
sg801
I0
sg802
I0
sg17
I7429
sg803
I0
sg804
I0
sbsg12
S'1.40'
p1806
sg18
S'D:\\Projects\\TXV_DRIVER\\drv_voip_tps'
p1807
sba(i__main__
DirectoryToProcess
p1808
(dp1809
g8
S'1'
p1810
sg10
S'drv_Win32Sys'
p1811
sg796
g1488
sg14
(i__main__
LineCounts
p1812
(dp1813
g799
I0
sg800
I0
sg801
I0
sg802
I0
sg17
I1694
sg803
I0
sg804
I0
sbsg12
S'1.41'
p1814
sg18
S'D:\\Projects\\TXV_DRIVER\\drv_Win32Sys'
p1815
sba(i__main__
DirectoryToProcess
p1816
(dp1817
g8
S'1'
p1818
sg10
S'mTPC'
p1819
sg796
g1488
sg14
(i__main__
LineCounts
p1820
(dp1821
g799
I0
sg800
I0
sg801
I0
sg802
I0
sg17
I52790
sg803
I0
sg804
I0
sbsg12
S'1.42'
p1822
sg18
S'D:\\Projects\\TXV_DRIVER\\mTPC\\trunk'
p1823
sba(i__main__
DirectoryToProcess
p1824
(dp1825
g8
S'1'
p1826
sg10
S'txv_auto_rad'
p1827
sg796
g1488
sg14
(i__main__
LineCounts
p1828
(dp1829
g799
I0
sg800
I0
sg801
I0
sg802
I0
sg17
I12306
sg803
I0
sg804
I0
sbsg12
S'1.43'
p1830
sg18
S'D:\\Projects\\TXV_DRIVER\\txv_auto_rad'
p1831
sba(i__main__
DirectoryToProcess
p1832
(dp1833
g8
S'1'
p1834
sg10
S'txv_Bridge'
p1835
sg796
g1488
sg14
(i__main__
LineCounts
p1836
(dp1837
g799
I0
sg800
I0
sg801
I0
sg802
I0
sg17
I2591
sg803
I0
sg804
I0
sbsg12
S'1.44'
p1838
sg18
S'D:\\Projects\\TXV_DRIVER\\txv_Bridge'
p1839
sba(i__main__
DirectoryToProcess
p1840
(dp1841
g8
S'1'
p1842
sg10
S'txv_california'
p1843
sg796
g1488
sg14
(i__main__
LineCounts
p1844
(dp1845
g799
I0
sg800
I0
sg801
I0
sg802
I0
sg17
I855
sg803
I0
sg804
I0
sbsg12
S'1.45'
p1846
sg18
S'D:\\Projects\\TXV_DRIVER\\txv_california'
p1847
sba(i__main__
DirectoryToProcess
p1848
(dp1849
g8
S'1'
p1850
sg10
S'txv_wavetronix'
p1851
sg796
g1488
sg14
(i__main__
LineCounts
p1852
(dp1853
g799
I0
sg800
I0
sg801
I0
sg802
I0
sg17
I9051
sg803
I0
sg804
I0
sbsg12
S'1.46'
p1854
sg18
S'D:\\Projects\\TXV_DRIVER\\txv_wavetronix'
p1855
sba(i__main__
DirectoryToProcess
p1856
(dp1857
g8
S'-1'
p1858
sg10
S'TXV_PLATFORM'
p1859
sg796
Nsg14
(i__main__
LineCounts
p1860
(dp1861
g799
I0
sg800
I0
sg801
I0
sg802
I0
sg17
I771843
sg803
I0
sg804
I0
sbsg12
S'2'
p1862
sg18
S'D:\\Projects\\TXV_PLATFORM\\trunk'
p1863
sba(i__main__
DirectoryToProcess
p1864
(dp1865
g8
S'2'
p1866
sg10
S'Alarm_Management'
p1867
sg796
g1856
sg14
(i__main__
LineCounts
p1868
(dp1869
g799
I0
sg800
I0
sg801
I0
sg802
I0
sg17
I19248
sg803
I0
sg804
I0
sbsg12
S'2.1'
p1870
sg18
S'D:\\Projects\\TXV_PLATFORM\\trunk\\Alarm Management'
p1871
sba(i__main__
DirectoryToProcess
p1872
(dp1873
g8
S'2'
p1874
sg10
S'AVL'
p1875
sg796
g1856
sg14
(i__main__
LineCounts
p1876
(dp1877
g799
I0
sg800
I0
sg801
I0
sg802
I0
sg17
I29376
sg803
I0
sg804
I0
sbsg12
S'2.2'
p1878
sg18
S'D:\\Projects\\TXV_PLATFORM\\trunk\\AVL'
p1879
sba(i__main__
DirectoryToProcess
p1880
(dp1881
g8
S'2'
p1882
sg10
S'Base'
p1883
sg796
g1856
sg14
(i__main__
LineCounts
p1884
(dp1885
g799
I0
sg800
I0
sg801
I0
sg802
I0
sg17
I52736
sg803
I0
sg804
I0
sbsg12
S'2.3'
p1886
sg18
S'D:\\Projects\\TXV_PLATFORM\\trunk\\Base'
p1887
sba(i__main__
DirectoryToProcess
p1888
(dp1889
g8
S'2'
p1890
sg10
S'Common'
p1891
sg796
g1856
sg14
(i__main__
LineCounts
p1892
(dp1893
g799
I0
sg800
I0
sg801
I0
sg802
I0
sg17
I73745
sg803
I0
sg804
I0
sbsg12
S'2.4'
p1894
sg18
S'D:\\Projects\\TXV_PLATFORM\\trunk\\Common'
p1895
sba(i__main__
DirectoryToProcess
p1896
(dp1897
g8
S'2'
p1898
sg10
S'Designer'
p1899
sg796
g1856
sg14
(i__main__
LineCounts
p1900
(dp1901
g799
I0
sg800
I0
sg801
I0
sg802
I0
sg17
I107063
sg803
I0
sg804
I0
sbsg12
S'2.5'
p1902
sg18
S'D:\\Projects\\TXV_PLATFORM\\trunk\\Designer'
p1903
sba(i__main__
DirectoryToProcess
p1904
(dp1905
g8
S'2'
p1906
sg10
S'Device_Library'
p1907
sg796
g1856
sg14
(i__main__
LineCounts
p1908
(dp1909
g799
I0
sg800
I0
sg801
I0
sg802
I0
sg17
I98991
sg803
I0
sg804
I0
sbsg12
S'2.6'
p1910
sg18
S'D:\\Projects\\TXV_PLATFORM\\trunk\\Device Library'
p1911
sba(i__main__
DirectoryToProcess
p1912
(dp1913
g8
S'2'
p1914
sg10
S'Device_Simulator'
p1915
sg796
g1856
sg14
(i__main__
LineCounts
p1916
(dp1917
g799
I0
sg800
I0
sg801
I0
sg802
I0
sg17
I3077
sg803
I0
sg804
I0
sbsg12
S'2.7'
p1918
sg18
S'D:\\Projects\\TXV_PLATFORM\\trunk\\Device Simulator'
p1919
sba(i__main__
DirectoryToProcess
p1920
(dp1921
g8
S'2'
p1922
sg10
S'GUI'
p1923
sg796
g1856
sg14
(i__main__
LineCounts
p1924
(dp1925
g799
I0
sg800
I0
sg801
I0
sg802
I0
sg17
I249515
sg803
I0
sg804
I0
sbsg12
S'2.8'
p1926
sg18
S'D:\\Projects\\TXV_PLATFORM\\trunk\\GUI'
p1927
sba(i__main__
DirectoryToProcess
p1928
(dp1929
g8
S'2'
p1930
sg10
S'IM'
p1931
sg796
g1856
sg14
(i__main__
LineCounts
p1932
(dp1933
g799
I0
sg800
I0
sg801
I0
sg802
I0
sg17
I3143
sg803
I0
sg804
I0
sbsg12
S'2.9'
p1934
sg18
S'D:\\Projects\\TXV_PLATFORM\\trunk\\IM'
p1935
sba(i__main__
DirectoryToProcess
p1936
(dp1937
g8
S'2'
p1938
sg10
S'LED'
p1939
sg796
g1856
sg14
(i__main__
LineCounts
p1940
(dp1941
g799
I0
sg800
I0
sg801
I0
sg802
I0
sg17
I8975
sg803
I0
sg804
I0
sbsg12
S'2.10'
p1942
sg18
S'D:\\Projects\\TXV_PLATFORM\\trunk\\LED'
p1943
sba(i__main__
DirectoryToProcess
p1944
(dp1945
g8
S'2'
p1946
sg10
S'Parking'
p1947
sg796
g1856
sg14
(i__main__
LineCounts
p1948
(dp1949
g799
I0
sg800
I0
sg801
I0
sg802
I0
sg17
I8420
sg803
I0
sg804
I0
sbsg12
S'2.11'
p1950
sg18
S'D:\\Projects\\TXV_PLATFORM\\trunk\\Parking'
p1951
sba(i__main__
DirectoryToProcess
p1952
(dp1953
g8
S'2'
p1954
sg10
S'PTM'
p1955
sg796
g1856
sg14
(i__main__
LineCounts
p1956
(dp1957
g799
I0
sg800
I0
sg801
I0
sg802
I0
sg17
I7746
sg803
I0
sg804
I0
sbsg12
S'2.12'
p1958
sg18
S'D:\\Projects\\TXV_PLATFORM\\trunk\\PTM'
p1959
sba(i__main__
DirectoryToProcess
p1960
(dp1961
g8
S'2'
p1962
sg10
S'RWIS'
p1963
sg796
g1856
sg14
(i__main__
LineCounts
p1964
(dp1965
g799
I0
sg800
I0
sg801
I0
sg802
I0
sg17
I3875
sg803
I0
sg804
I0
sbsg12
S'2.13'
p1966
sg18
S'D:\\Projects\\TXV_PLATFORM\\trunk\\RWIS'
p1967
sba(i__main__
DirectoryToProcess
p1968
(dp1969
g8
S'2'
p1970
sg10
S'SCATS'
p1971
sg796
g1856
sg14
(i__main__
LineCounts
p1972
(dp1973
g799
I0
sg800
I0
sg801
I0
sg802
I0
sg17
I19586
sg803
I0
sg804
I0
sbsg12
S'2.14'
p1974
sg18
S'D:\\Projects\\TXV_PLATFORM\\trunk\\SCATS'
p1975
sba(i__main__
DirectoryToProcess
p1976
(dp1977
g8
S'2'
p1978
sg10
S'TTP'
p1979
sg796
g1856
sg14
(i__main__
LineCounts
p1980
(dp1981
g799
I0
sg800
I0
sg801
I0
sg802
I0
sg17
I3532
sg803
I0
sg804
I0
sbsg12
S'2.15'
p1982
sg18
S'D:\\Projects\\TXV_PLATFORM\\trunk\\TTP'
p1983
sba(i__main__
DirectoryToProcess
p1984
(dp1985
g8
S'2'
p1986
sg10
S'TVIS'
p1987
sg796
g1856
sg14
(i__main__
LineCounts
p1988
(dp1989
g799
I0
sg800
I0
sg801
I0
sg802
I0
sg17
I82815
sg803
I0
sg804
I0
sbsg12
S'2.16'
p1990
sg18
S'D:\\Projects\\TXV_PLATFORM\\trunk\\TVIS'
p1991
sba(i__main__
DirectoryToProcess
p1992
(dp1993
g8
S'-1'
p1994
sg10
S'TXV_CLIENT'
p1995
sg796
Nsg14
(i__main__
LineCounts
p1996
(dp1997
g799
I0
sg800
I0
sg801
I0
sg802
I0
sg17
I505569
sg803
I0
sg804
I0
sbsg12
S'3'
p1998
sg18
S'D:\\Projects\\TXV_CLIENT'
p1999
sba(i__main__
DirectoryToProcess
p2000
(dp2001
g8
S'3'
p2002
sg10
S'AutomationServer'
p2003
sg796
g1992
sg14
(i__main__
LineCounts
p2004
(dp2005
g799
I0
sg800
I0
sg801
I0
sg802
I0
sg17
I11120
sg803
I0
sg804
I0
sbsg12
S'3.1'
p2006
sg18
S'D:\\Projects\\TXV_CLIENT\\AutomationServer'
p2007
sba(i__main__
DirectoryToProcess
p2008
(dp2009
g8
S'3'
p2010
sg10
S'DataIntegrity'
p2011
sg796
g1992
sg14
(i__main__
LineCounts
p2012
(dp2013
g799
I0
sg800
I0
sg801
I0
sg802
I0
sg17
I0
sg803
I0
sg804
I0
sbsg12
S'3.2'
p2014
sg18
S'D:\\Projects\\TXV_CLIENT\\DataIntegrity'
p2015
sba(i__main__
DirectoryToProcess
p2016
(dp2017
g8
S'3'
p2018
sg10
S'NTCIP_C2C'
p2019
sg796
g1992
sg14
(i__main__
LineCounts
p2020
(dp2021
g799
I0
sg800
I0
sg801
I0
sg802
I0
sg17
I64884
sg803
I0
sg804
I0
sbsg12
S'3.3'
p2022
sg18
S'D:\\Projects\\TXV_CLIENT\\NTCIP_C2C'
p2023
sba(i__main__
DirectoryToProcess
p2024
(dp2025
g8
S'3'
p2026
sg10
S'NTCIP_C2F'
p2027
sg796
g1992
sg14
(i__main__
LineCounts
p2028
(dp2029
g799
I0
sg800
I0
sg801
I0
sg802
I0
sg17
I62598
sg803
I0
sg804
I0
sbsg12
S'3.4'
p2030
sg18
S'D:\\Projects\\TXV_CLIENT\\NTCIP_C2F'
p2031
sba(i__main__
DirectoryToProcess
p2032
(dp2033
g8
S'3'
p2034
sg10
S'OM_Interface'
p2035
sg796
g1992
sg14
(i__main__
LineCounts
p2036
(dp2037
g799
I0
sg800
I0
sg801
I0
sg802
I0
sg17
I3127
sg803
I0
sg804
I0
sbsg12
S'3.5'
p2038
sg18
S'D:\\Projects\\TXV_CLIENT\\OM_Interface'
p2039
sba(i__main__
DirectoryToProcess
p2040
(dp2041
g8
S'3'
p2042
sg10
S'ScenarioManager2'
p2043
sg796
g1992
sg14
(i__main__
LineCounts
p2044
(dp2045
g799
I0
sg800
I0
sg801
I0
sg802
I0
sg17
I14778
sg803
I0
sg804
I0
sbsg12
S'3.6'
p2046
sg18
S'D:\\Projects\\TXV_CLIENT\\ScenarioManager2'
p2047
sba(i__main__
DirectoryToProcess
p2048
(dp2049
g8
S'3'
p2050
sg10
S'scenario_manager'
p2051
sg796
g1992
sg14
(i__main__
LineCounts
p2052
(dp2053
g799
I0
sg800
I0
sg801
I0
sg802
I0
sg17
I7026
sg803
I0
sg804
I0
sbsg12
S'3.7'
p2054
sg18
S'D:\\Projects\\TXV_CLIENT\\scenario_manager'
p2055
sba(i__main__
DirectoryToProcess
p2056
(dp2057
g8
S'3'
p2058
sg10
S'SpeedEnforcement'
p2059
sg796
g1992
sg14
(i__main__
LineCounts
p2060
(dp2061
g799
I0
sg800
I0
sg801
I0
sg802
I0
sg17
I8436
sg803
I0
sg804
I0
sbsg12
S'3.8'
p2062
sg18
S'D:\\Projects\\TXV_CLIENT\\SpeedEnforcement\\trunk\\src'
p2063
sba(i__main__
DirectoryToProcess
p2064
(dp2065
g8
S'3'
p2066
sg10
S'test_app'
p2067
sg796
g1992
sg14
(i__main__
LineCounts
p2068
(dp2069
g799
I0
sg800
I0
sg801
I0
sg802
I0
sg17
I5788
sg803
I0
sg804
I0
sbsg12
S'3.9'
p2070
sg18
S'D:\\Projects\\TXV_CLIENT\\test_app'
p2071
sba(i__main__
DirectoryToProcess
p2072
(dp2073
g8
S'3'
p2074
sg10
S'tXv_PDA_App'
p2075
sg796
g1992
sg14
(i__main__
LineCounts
p2076
(dp2077
g799
I0
sg800
I0
sg801
I0
sg802
I0
sg17
I2304
sg803
I0
sg804
I0
sbsg12
S'3.10'
p2078
sg18
S'D:\\Projects\\TXV_CLIENT\\tXv PDA App'
p2079
sba(i__main__
DirectoryToProcess
p2080
(dp2081
g8
S'3'
p2082
sg10
S'TXV_DATEX2'
p2083
sg796
g1992
sg14
(i__main__
LineCounts
p2084
(dp2085
g799
I0
sg800
I0
sg801
I0
sg802
I0
sg17
I32753
sg803
I0
sg804
I0
sbsg12
S'3.11'
p2086
sg18
S'D:\\Projects\\TXV_CLIENT\\TXV_DATEX2'
p2087
sba(i__main__
DirectoryToProcess
p2088
(dp2089
g8
S'3'
p2090
sg10
S'TXV_GUI_1'
p2091
sg796
g1992
sg14
(i__main__
LineCounts
p2092
(dp2093
g799
I0
sg800
I0
sg801
I0
sg802
I0
sg17
I268874
sg803
I0
sg804
I0
sbsg12
S'3.12'
p2094
sg18
S'D:\\Projects\\TXV_CLIENT\\TXV_GUI'
p2095
sba(i__main__
DirectoryToProcess
p2096
(dp2097
g8
S'3'
p2098
sg10
S'TXV_SERVICE'
p2099
sg796
g1992
sg14
(i__main__
LineCounts
p2100
(dp2101
g799
I0
sg800
I0
sg801
I0
sg802
I0
sg17
I2315
sg803
I0
sg804
I0
sbsg12
S'3.13'
p2102
sg18
S'D:\\Projects\\TXV_CLIENT\\TXV_SERVICE'
p2103
sba(i__main__
DirectoryToProcess
p2104
(dp2105
g8
S'3'
p2106
sg10
S'TXV_TFP'
p2107
sg796
g1992
sg14
(i__main__
LineCounts
p2108
(dp2109
g799
I0
sg800
I0
sg801
I0
sg802
I0
sg17
I19562
sg803
I0
sg804
I0
sbsg12
S'3.14'
p2110
sg18
S'D:\\Projects\\TXV_CLIENT\\TXV_TFP'
p2111
sba(i__main__
DirectoryToProcess
p2112
(dp2113
g8
S'3'
p2114
sg10
S'TXV_TTPRo'
p2115
sg796
g1992
sg14
(i__main__
LineCounts
p2116
(dp2117
g799
I0
sg800
I0
sg801
I0
sg802
I0
sg17
I2004
sg803
I0
sg804
I0
sbsg12
S'3.15'
p2118
sg18
S'D:\\Projects\\TXV_CLIENT\\TXV_TTPRo'
p2119
sba(i__main__
DirectoryToProcess
p2120
(dp2121
g8
S'-1'
p2122
sg10
S'TXV_CORE'
p2123
sg796
Nsg14
(i__main__
LineCounts
p2124
(dp2125
g799
I0
sg800
I0
sg801
I0
sg802
I0
sg17
I115999
sg803
I0
sg804
I0
sbsg12
S'4'
p2126
sg18
S'D:\\Projects\\TXV_CORE'
p2127
sba(i__main__
DirectoryToProcess
p2128
(dp2129
g8
S'4'
p2130
sg10
S'C_LIBRARY'
p2131
sg796
g2120
sg14
(i__main__
LineCounts
p2132
(dp2133
g799
I0
sg800
I0
sg801
I0
sg802
I0
sg17
I27679
sg803
I0
sg804
I0
sbsg12
S'4.1'
p2134
sg18
S'D:\\Projects\\TXV_CORE\\C_LIBRARY'
p2135
sba(i__main__
DirectoryToProcess
p2136
(dp2137
g8
S'4'
p2138
sg10
S'C_LIBRARY-branch-datasequencing'
p2139
sg796
g2120
sg14
(i__main__
LineCounts
p2140
(dp2141
g799
I0
sg800
I0
sg801
I0
sg802
I0
sg17
I27738
sg803
I0
sg804
I0
sbsg12
S'4.2'
p2142
sg18
S'D:\\Projects\\TXV_CORE\\C_LIBRARY-branch-datasequencing'
p2143
sba(i__main__
DirectoryToProcess
p2144
(dp2145
g8
S'4'
p2146
sg10
S'historian'
p2147
sg796
g2120
sg14
(i__main__
LineCounts
p2148
(dp2149
g799
I0
sg800
I0
sg801
I0
sg802
I0
sg17
I6914
sg803
I0
sg804
I0
sbsg12
S'4.3'
p2150
sg18
S'D:\\Projects\\TXV_CORE\\historian\\trunk'
p2151
sba(i__main__
DirectoryToProcess
p2152
(dp2153
g8
S'4'
p2154
sg10
S'tXv_Jezgra'
p2155
sg796
g2120
sg14
(i__main__
LineCounts
p2156
(dp2157
g799
I0
sg800
I0
sg801
I0
sg802
I0
sg17
I41430
sg803
I0
sg804
I0
sbsg12
S'4.4'
p2158
sg18
S'D:\\Projects\\TXV_CORE\\tXv Jezgra'
p2159
sba(i__main__
DirectoryToProcess
p2160
(dp2161
g8
S'4'
p2162
sg10
S'txv_Filter_HR'
p2163
sg796
g2120
sg14
(i__main__
LineCounts
p2164
(dp2165
g799
I0
sg800
I0
sg801
I0
sg802
I0
sg17
I2645
sg803
I0
sg804
I0
sbsg12
S'4.5'
p2166
sg18
S'D:\\Projects\\TXV_CORE\\txv_Filter_HR'
p2167
sba(i__main__
DirectoryToProcess
p2168
(dp2169
g8
S'4'
p2170
sg10
S'UserRights'
p2171
sg796
g2120
sg14
(i__main__
LineCounts
p2172
(dp2173
g799
I0
sg800
I0
sg801
I0
sg802
I0
sg17
I9593
sg803
I0
sg804
I0
sbsg12
S'4.6'
p2174
sg18
S'D:\\Projects\\TXV_CORE\\UserRights'
p2175
sba(i__main__
DirectoryToProcess
p2176
(dp2177
g8
S'-1'
p2178
sg10
S'TXV_VIDEO'
p2179
sg796
Nsg14
(i__main__
LineCounts
p2180
(dp2181
g799
I0
sg800
I0
sg801
I0
sg802
I0
sg17
I107960
sg803
I0
sg804
I0
sbsg12
S'5'
p2182
sg18
S'D:\\Projects\\TXV_VIDEO'
p2183
sba(i__main__
DirectoryToProcess
p2184
(dp2185
g8
S'5'
p2186
sg10
S'drv_EyeConn'
p2187
sg796
g2176
sg14
(i__main__
LineCounts
p2188
(dp2189
g799
I0
sg800
I0
sg801
I0
sg802
I0
sg17
I4610
sg803
I0
sg804
I0
sbsg12
S'5.1'
p2190
sg18
S'D:\\Projects\\TXV_VIDEO\\drv_EyeConn'
p2191
sba(i__main__
DirectoryToProcess
p2192
(dp2193
g8
S'5'
p2194
sg10
S'drv_PTZ'
p2195
sg796
g2176
sg14
(i__main__
LineCounts
p2196
(dp2197
g799
I0
sg800
I0
sg801
I0
sg802
I0
sg17
I5651
sg803
I0
sg804
I0
sbsg12
S'5.2'
p2198
sg18
S'D:\\Projects\\TXV_VIDEO\\drv_PTZ'
p2199
sba(i__main__
DirectoryToProcess
p2200
(dp2201
g8
S'5'
p2202
sg10
S'drv_VideoTPS'
p2203
sg796
g2176
sg14
(i__main__
LineCounts
p2204
(dp2205
g799
I0
sg800
I0
sg801
I0
sg802
I0
sg17
I1874
sg803
I0
sg804
I0
sbsg12
S'5.3'
p2206
sg18
S'D:\\Projects\\TXV_VIDEO\\drv_VideoTPS'
p2207
sba(i__main__
DirectoryToProcess
p2208
(dp2209
g8
S'5'
p2210
sg10
S'KeyboardDriver'
p2211
sg796
g2176
sg14
(i__main__
LineCounts
p2212
(dp2213
g799
I0
sg800
I0
sg801
I0
sg802
I0
sg17
I9369
sg803
I0
sg804
I0
sbsg12
S'5.4'
p2214
sg18
S'D:\\Projects\\TXV_VIDEO\\KeyboardDriver'
p2215
sba(i__main__
DirectoryToProcess
p2216
(dp2217
g8
S'5'
p2218
sg10
S'NVR'
p2219
sg796
g2176
sg14
(i__main__
LineCounts
p2220
(dp2221
g799
I0
sg800
I0
sg801
I0
sg802
I0
sg17
I35246
sg803
I0
sg804
I0
sbsg12
S'5.5'
p2222
sg18
S'D:\\Projects\\TXV_VIDEO\\NVR'
p2223
sba(i__main__
DirectoryToProcess
p2224
(dp2225
g8
S'5'
p2226
sg10
S'NVRConnDLL'
p2227
sg796
g2176
sg14
(i__main__
LineCounts
p2228
(dp2229
g799
I0
sg800
I0
sg801
I0
sg802
I0
sg17
I2970
sg803
I0
sg804
I0
sbsg12
S'5.6'
p2230
sg18
S'D:\\Projects\\TXV_VIDEO\\NVRConnDLL'
p2231
sba(i__main__
DirectoryToProcess
p2232
(dp2233
g8
S'5'
p2234
sg10
S'NVRConsole'
p2235
sg796
g2176
sg14
(i__main__
LineCounts
p2236
(dp2237
g799
I0
sg800
I0
sg801
I0
sg802
I0
sg17
I19043
sg803
I0
sg804
I0
sbsg12
S'5.7'
p2238
sg18
S'D:\\Projects\\TXV_VIDEO\\NVRConsole'
p2239
sba(i__main__
DirectoryToProcess
p2240
(dp2241
g8
S'5'
p2242
sg10
S'VideoPlayer'
p2243
sg796
g2176
sg14
(i__main__
LineCounts
p2244
(dp2245
g799
I0
sg800
I0
sg801
I0
sg802
I0
sg17
I29197
sg803
I0
sg804
I0
sbsg12
S'5.8'
p2246
sg18
S'D:\\Projects\\TXV_VIDEO\\VideoPlayer'
p2247
sba(i__main__
DirectoryToProcess
p2248
(dp2249
g8
S'-1'
p2250
sg10
S'TXV_INTERNAL'
p2251
sg796
Nsg14
(i__main__
LineCounts
p2252
(dp2253
g799
I0
sg800
I0
sg801
I0
sg802
I0
sg17
I48943
sg803
I0
sg804
I0
sbsg12
S'6'
p2254
sg18
S'D:\\Projects\\TXV_INTERNAL'
p2255
sba(i__main__
DirectoryToProcess
p2256
(dp2257
g8
S'6'
p2258
sg10
S'Nemesis'
p2259
sg796
g2248
sg14
(i__main__
LineCounts
p2260
(dp2261
g799
I0
sg800
I0
sg801
I0
sg802
I0
sg17
I48943
sg803
I0
sg804
I0
sbsg12
S'6.1'
p2262
sg18
S'D:\\Projects\\TXV_INTERNAL\\Nemesis'
p2263
sbasg1
(S'\x07\xdb\x05\x10\n\x1f#\x06\xdd\xd0'
p2264
tp2265
Rp2266
(lp2267
(i__main__
DirectoryToProcess
p2268
(dp2269
g8
S'-1'
p2270
sg10
S'TXV_DRIVER'
p2271
sg796
Nsg14
(i__main__
LineCounts
p2272
(dp2273
g799
I0
sg800
I0
sg801
I0
sg802
I0
sg17
I423217
sg803
I0
sg804
I0
sbsg12
S'1'
p2274
sg18
S'D:\\Projects\\TXV_DRIVER'
p2275
sba(i__main__
DirectoryToProcess
p2276
(dp2277
g8
S'1'
p2278
sg10
S'Autoscope_driver'
p2279
sg796
g2268
sg14
(i__main__
LineCounts
p2280
(dp2281
g799
I0
sg800
I0
sg801
I0
sg802
I0
sg17
I10830
sg803
I0
sg804
I0
sbsg12
S'1.1'
p2282
sg18
S'D:\\Projects\\TXV_DRIVER\\drv_autoscope'
p2283
sba(i__main__
DirectoryToProcess
p2284
(dp2285
g8
S'1'
p2286
sg10
S'Autosense_driver'
p2287
sg796
g2268
sg14
(i__main__
LineCounts
p2288
(dp2289
g799
I0
sg800
I0
sg801
I0
sg802
I0
sg17
I5339
sg803
I0
sg804
I0
sbsg12
S'1.2'
p2290
sg18
S'D:\\Projects\\TXV_DRIVER\\drv_Autosense'
p2291
sba(i__main__
DirectoryToProcess
p2292
(dp2293
g8
S'1'
p2294
sg10
S'AVL_driver'
p2295
sg796
g2268
sg14
(i__main__
LineCounts
p2296
(dp2297
g799
I0
sg800
I0
sg801
I0
sg802
I0
sg17
I1180
sg803
I0
sg804
I0
sbsg12
S'1.3'
p2298
sg18
S'D:\\Projects\\TXV_DRIVER\\drv_AVL'
p2299
sba(i__main__
DirectoryToProcess
p2300
(dp2301
g8
S'1'
p2302
sg10
S'drv_bosch'
p2303
sg796
g2268
sg14
(i__main__
LineCounts
p2304
(dp2305
g799
I0
sg800
I0
sg801
I0
sg802
I0
sg17
I4120
sg803
I0
sg804
I0
sbsg12
S'1.4'
p2306
sg18
S'D:\\Projects\\TXV_DRIVER\\drv_bosch'
p2307
sba(i__main__
DirectoryToProcess
p2308
(dp2309
g8
S'1'
p2310
sg10
S'drv_dbsql'
p2311
sg796
g2268
sg14
(i__main__
LineCounts
p2312
(dp2313
g799
I0
sg800
I0
sg801
I0
sg802
I0
sg17
I8771
sg803
I0
sg804
I0
sbsg12
S'1.5'
p2314
sg18
S'D:\\Projects\\TXV_DRIVER\\drv_dbsql'
p2315
sba(i__main__
DirectoryToProcess
p2316
(dp2317
g8
S'1'
p2318
sg10
S'drv_dohvat'
p2319
sg796
g2268
sg14
(i__main__
LineCounts
p2320
(dp2321
g799
I0
sg800
I0
sg801
I0
sg802
I0
sg17
I3395
sg803
I0
sg804
I0
sbsg12
S'1.6'
p2322
sg18
S'D:\\Projects\\TXV_DRIVER\\drv_dohvat'
p2323
sba(i__main__
DirectoryToProcess
p2324
(dp2325
g8
S'1'
p2326
sg10
S'drv_enforcement'
p2327
sg796
g2268
sg14
(i__main__
LineCounts
p2328
(dp2329
g799
I0
sg800
I0
sg801
I0
sg802
I0
sg17
I6568
sg803
I0
sg804
I0
sbsg12
S'1.7'
p2330
sg18
S'D:\\Projects\\TXV_DRIVER\\drv_enforcement'
p2331
sba(i__main__
DirectoryToProcess
p2332
(dp2333
g8
S'1'
p2334
sg10
S'drv_eventmanager'
p2335
sg796
g2268
sg14
(i__main__
LineCounts
p2336
(dp2337
g799
I0
sg800
I0
sg801
I0
sg802
I0
sg17
I6945
sg803
I0
sg804
I0
sbsg12
S'1.8'
p2338
sg18
S'D:\\Projects\\TXV_DRIVER\\drv_eventmanager'
p2339
sba(i__main__
DirectoryToProcess
p2340
(dp2341
g8
S'1'
p2342
sg10
S'drv_FMS'
p2343
sg796
g2268
sg14
(i__main__
LineCounts
p2344
(dp2345
g799
I0
sg800
I0
sg801
I0
sg802
I0
sg17
I4242
sg803
I0
sg804
I0
sbsg12
S'1.9'
p2346
sg18
S'D:\\Projects\\TXV_DRIVER\\drv_FMS'
p2347
sba(i__main__
DirectoryToProcess
p2348
(dp2349
g8
S'1'
p2350
sg10
S'drv_GatsoGet'
p2351
sg796
g2268
sg14
(i__main__
LineCounts
p2352
(dp2353
g799
I0
sg800
I0
sg801
I0
sg802
I0
sg17
I2034
sg803
I0
sg804
I0
sbsg12
S'1.10'
p2354
sg18
S'D:\\Projects\\TXV_DRIVER\\drv_GatsoGet'
p2355
sba(i__main__
DirectoryToProcess
p2356
(dp2357
g8
S'1'
p2358
sg10
S'drv_GPRS'
p2359
sg796
g2268
sg14
(i__main__
LineCounts
p2360
(dp2361
g799
I0
sg800
I0
sg801
I0
sg802
I0
sg17
I5711
sg803
I0
sg804
I0
sbsg12
S'1.11'
p2362
sg18
S'D:\\Projects\\TXV_DRIVER\\drv_GPRS'
p2363
sba(i__main__
DirectoryToProcess
p2364
(dp2365
g8
S'1'
p2366
sg10
S'drv_gprs_tps'
p2367
sg796
g2268
sg14
(i__main__
LineCounts
p2368
(dp2369
g799
I0
sg800
I0
sg801
I0
sg802
I0
sg17
I6285
sg803
I0
sg804
I0
sbsg12
S'1.12'
p2370
sg18
S'D:\\Projects\\TXV_DRIVER\\drv_gprs_tps'
p2371
sba(i__main__
DirectoryToProcess
p2372
(dp2373
g8
S'1'
p2374
sg10
S'drv_IncidentManagement'
p2375
sg796
g2268
sg14
(i__main__
LineCounts
p2376
(dp2377
g799
I0
sg800
I0
sg801
I0
sg802
I0
sg17
I379
sg803
I0
sg804
I0
sbsg12
S'1.13'
p2378
sg18
S'D:\\Projects\\TXV_DRIVER\\drv_IncidentManagement'
p2379
sba(i__main__
DirectoryToProcess
p2380
(dp2381
g8
S'1'
p2382
sg10
S'drv_lpr'
p2383
sg796
g2268
sg14
(i__main__
LineCounts
p2384
(dp2385
g799
I0
sg800
I0
sg801
I0
sg802
I0
sg17
I1412
sg803
I0
sg804
I0
sbsg12
S'1.14'
p2386
sg18
S'D:\\Projects\\TXV_DRIVER\\drv_lpr'
p2387
sba(i__main__
DirectoryToProcess
p2388
(dp2389
g8
S'1'
p2390
sg10
S'drv_lpr_sim'
p2391
sg796
g2268
sg14
(i__main__
LineCounts
p2392
(dp2393
g799
I0
sg800
I0
sg801
I0
sg802
I0
sg17
I1276
sg803
I0
sg804
I0
sbsg12
S'1.15'
p2394
sg18
S'D:\\Projects\\TXV_DRIVER\\drv_lpr_sim'
p2395
sba(i__main__
DirectoryToProcess
p2396
(dp2397
g8
S'1'
p2398
sg10
S'drv_modbus'
p2399
sg796
g2268
sg14
(i__main__
LineCounts
p2400
(dp2401
g799
I0
sg800
I0
sg801
I0
sg802
I0
sg17
I16175
sg803
I0
sg804
I0
sbsg12
S'1.16'
p2402
sg18
S'D:\\Projects\\TXV_DRIVER\\drv_modbus'
p2403
sba(i__main__
DirectoryToProcess
p2404
(dp2405
g8
S'1'
p2406
sg10
S'drv_MQSimulator'
p2407
sg796
g2268
sg14
(i__main__
LineCounts
p2408
(dp2409
g799
I0
sg800
I0
sg801
I0
sg802
I0
sg17
I1190
sg803
I0
sg804
I0
sbsg12
S'1.17'
p2410
sg18
S'D:\\Projects\\TXV_DRIVER\\drv_MQSimulator'
p2411
sba(i__main__
DirectoryToProcess
p2412
(dp2413
g8
S'1'
p2414
sg10
S'drv_msg_lib'
p2415
sg796
g2268
sg14
(i__main__
LineCounts
p2416
(dp2417
g799
I0
sg800
I0
sg801
I0
sg802
I0
sg17
I5156
sg803
I0
sg804
I0
sbsg12
S'1.18'
p2418
sg18
S'D:\\Projects\\TXV_DRIVER\\drv_msg_lib'
p2419
sba(i__main__
DirectoryToProcess
p2420
(dp2421
g8
S'1'
p2422
sg10
S'drv_opc'
p2423
sg796
g2268
sg14
(i__main__
LineCounts
p2424
(dp2425
g799
I0
sg800
I0
sg801
I0
sg802
I0
sg17
I7526
sg803
I0
sg804
I0
sbsg12
S'1.20'
p2426
sg18
S'D:\\Projects\\TXV_DRIVER\\drv_opc'
p2427
sba(i__main__
DirectoryToProcess
p2428
(dp2429
g8
S'1'
p2430
sg10
S'drv_Parking'
p2431
sg796
g2268
sg14
(i__main__
LineCounts
p2432
(dp2433
g799
I0
sg800
I0
sg801
I0
sg802
I0
sg17
I1920
sg803
I0
sg804
I0
sbsg12
S'1.21'
p2434
sg18
S'D:\\Projects\\TXV_DRIVER\\drv_Parking'
p2435
sba(i__main__
DirectoryToProcess
p2436
(dp2437
g8
S'1'
p2438
sg10
S'drv_PDA'
p2439
sg796
g2268
sg14
(i__main__
LineCounts
p2440
(dp2441
g799
I0
sg800
I0
sg801
I0
sg802
I0
sg17
I4841
sg803
I0
sg804
I0
sbsg12
S'1.22'
p2442
sg18
S'D:\\Projects\\TXV_DRIVER\\drv_PDA'
p2443
sba(i__main__
DirectoryToProcess
p2444
(dp2445
g8
S'1'
p2446
sg10
S'drv_prom'
p2447
sg796
g2268
sg14
(i__main__
LineCounts
p2448
(dp2449
g799
I0
sg800
I0
sg801
I0
sg802
I0
sg17
I15878
sg803
I0
sg804
I0
sbsg12
S'1.23'
p2450
sg18
S'D:\\Projects\\TXV_DRIVER\\drv_prom'
p2451
sba(i__main__
DirectoryToProcess
p2452
(dp2453
g8
S'1'
p2454
sg10
S'drv_prom_P'
p2455
sg796
g2268
sg14
(i__main__
LineCounts
p2456
(dp2457
g799
I0
sg800
I0
sg801
I0
sg802
I0
sg17
I47234
sg803
I0
sg804
I0
sbsg12
S'1.24'
p2458
sg18
S'D:\\Projects\\TXV_DRIVER\\drv_prom_P'
p2459
sba(i__main__
DirectoryToProcess
p2460
(dp2461
g8
S'1'
p2462
sg10
S'drv_PTM'
p2463
sg796
g2268
sg14
(i__main__
LineCounts
p2464
(dp2465
g799
I0
sg800
I0
sg801
I0
sg802
I0
sg17
I3175
sg803
I0
sg804
I0
sbsg12
S'1.25'
p2466
sg18
S'D:\\Projects\\TXV_DRIVER\\drv_PTM'
p2467
sba(i__main__
DirectoryToProcess
p2468
(dp2469
g8
S'1'
p2470
sg10
S'drv_Quercus'
p2471
sg796
g2268
sg14
(i__main__
LineCounts
p2472
(dp2473
g799
I0
sg800
I0
sg801
I0
sg802
I0
sg17
I8460
sg803
I0
sg804
I0
sbsg12
S'1.26'
p2474
sg18
S'D:\\Projects\\TXV_DRIVER\\drv_Quercus'
p2475
sba(i__main__
DirectoryToProcess
p2476
(dp2477
g8
S'1'
p2478
sg10
S'drv_Raktel'
p2479
sg796
g2268
sg14
(i__main__
LineCounts
p2480
(dp2481
g799
I0
sg800
I0
sg801
I0
sg802
I0
sg17
I29198
sg803
I0
sg804
I0
sbsg12
S'1.27'
p2482
sg18
S'D:\\Projects\\TXV_DRIVER\\drv_Raktel'
p2483
sba(i__main__
DirectoryToProcess
p2484
(dp2485
g8
S'1'
p2486
sg10
S'drv_Raktel_Simulator'
p2487
sg796
g2268
sg14
(i__main__
LineCounts
p2488
(dp2489
g799
I0
sg800
I0
sg801
I0
sg802
I0
sg17
I6472
sg803
I0
sg804
I0
sbsg12
S'1.28'
p2490
sg18
S'D:\\Projects\\TXV_DRIVER\\drv_Raktel_Simulator'
p2491
sba(i__main__
DirectoryToProcess
p2492
(dp2493
g8
S'1'
p2494
sg10
S'drv_Repository'
p2495
sg796
g2268
sg14
(i__main__
LineCounts
p2496
(dp2497
g799
I0
sg800
I0
sg801
I0
sg802
I0
sg17
I3047
sg803
I0
sg804
I0
sbsg12
S'1.29'
p2498
sg18
S'D:\\Projects\\TXV_DRIVER\\drv_Repository'
p2499
sba(i__main__
DirectoryToProcess
p2500
(dp2501
g8
S'1'
p2502
sg10
S'drv_SCATS'
p2503
sg796
g2268
sg14
(i__main__
LineCounts
p2504
(dp2505
g799
I0
sg800
I0
sg801
I0
sg802
I0
sg17
I6631
sg803
I0
sg804
I0
sbsg12
S'1.30'
p2506
sg18
S'D:\\Projects\\TXV_DRIVER\\drv_SCATS'
p2507
sba(i__main__
DirectoryToProcess
p2508
(dp2509
g8
S'1'
p2510
sg10
S'drv_sepura'
p2511
sg796
g2268
sg14
(i__main__
LineCounts
p2512
(dp2513
g799
I0
sg800
I0
sg801
I0
sg802
I0
sg17
I3393
sg803
I0
sg804
I0
sbsg12
S'1.31'
p2514
sg18
S'D:\\Projects\\TXV_DRIVER\\drv_sepura'
p2515
sba(i__main__
DirectoryToProcess
p2516
(dp2517
g8
S'1'
p2518
sg10
S'drv_SipPhone'
p2519
sg796
g2268
sg14
(i__main__
LineCounts
p2520
(dp2521
g799
I0
sg800
I0
sg801
I0
sg802
I0
sg17
I4070
sg803
I0
sg804
I0
sbsg12
S'1.32'
p2522
sg18
S'D:\\Projects\\TXV_DRIVER\\drv_SipPhone'
p2523
sba(i__main__
DirectoryToProcess
p2524
(dp2525
g8
S'1'
p2526
sg10
S'drv_snmp'
p2527
sg796
g2268
sg14
(i__main__
LineCounts
p2528
(dp2529
g799
I0
sg800
I0
sg801
I0
sg802
I0
sg17
I3669
sg803
I0
sg804
I0
sbsg12
S'1.33'
p2530
sg18
S'D:\\Projects\\TXV_DRIVER\\drv_snmp'
p2531
sba(i__main__
DirectoryToProcess
p2532
(dp2533
g8
S'1'
p2534
sg10
S'drv_tps'
p2535
sg796
g2268
sg14
(i__main__
LineCounts
p2536
(dp2537
g799
I0
sg800
I0
sg801
I0
sg802
I0
sg17
I34380
sg803
I0
sg804
I0
sbsg12
S'1.34'
p2538
sg18
S'D:\\Projects\\TXV_DRIVER\\drv_tps\\trunk'
p2539
sba(i__main__
DirectoryToProcess
p2540
(dp2541
g8
S'1'
p2542
sg10
S'drv_Traficon'
p2543
sg796
g2268
sg14
(i__main__
LineCounts
p2544
(dp2545
g799
I0
sg800
I0
sg801
I0
sg802
I0
sg17
I2139
sg803
I0
sg804
I0
sbsg12
S'1.35'
p2546
sg18
S'D:\\Projects\\TXV_DRIVER\\drv_Traficon'
p2547
sba(i__main__
DirectoryToProcess
p2548
(dp2549
g8
S'1'
p2550
sg10
S'drv_VBA'
p2551
sg796
g2268
sg14
(i__main__
LineCounts
p2552
(dp2553
g799
I0
sg800
I0
sg801
I0
sg802
I0
sg17
I4121
sg803
I0
sg804
I0
sbsg12
S'1.36'
p2554
sg18
S'D:\\Projects\\TXV_DRIVER\\drv_VBA'
p2555
sba(i__main__
DirectoryToProcess
p2556
(dp2557
g8
S'1'
p2558
sg10
S'drv_Vidos'
p2559
sg796
g2268
sg14
(i__main__
LineCounts
p2560
(dp2561
g799
I0
sg800
I0
sg801
I0
sg802
I0
sg17
I309
sg803
I0
sg804
I0
sbsg12
S'1.37'
p2562
sg18
S'D:\\Projects\\TXV_DRIVER\\drv_Vidos'
p2563
sba(i__main__
DirectoryToProcess
p2564
(dp2565
g8
S'1'
p2566
sg10
S'drv_vmatrix'
p2567
sg796
g2268
sg14
(i__main__
LineCounts
p2568
(dp2569
g799
I0
sg800
I0
sg801
I0
sg802
I0
sg17
I3890
sg803
I0
sg804
I0
sbsg12
S'1.38'
p2570
sg18
S'D:\\Projects\\TXV_DRIVER\\drv_vmatrix'
p2571
sba(i__main__
DirectoryToProcess
p2572
(dp2573
g8
S'1'
p2574
sg10
S'drv_voip_pbx'
p2575
sg796
g2268
sg14
(i__main__
LineCounts
p2576
(dp2577
g799
I0
sg800
I0
sg801
I0
sg802
I0
sg17
I55140
sg803
I0
sg804
I0
sbsg12
S'1.39'
p2578
sg18
S'D:\\Projects\\TXV_DRIVER\\drv_voip_pbx'
p2579
sba(i__main__
DirectoryToProcess
p2580
(dp2581
g8
S'1'
p2582
sg10
S'drv_voip_tps'
p2583
sg796
g2268
sg14
(i__main__
LineCounts
p2584
(dp2585
g799
I0
sg800
I0
sg801
I0
sg802
I0
sg17
I7429
sg803
I0
sg804
I0
sbsg12
S'1.40'
p2586
sg18
S'D:\\Projects\\TXV_DRIVER\\drv_voip_tps'
p2587
sba(i__main__
DirectoryToProcess
p2588
(dp2589
g8
S'1'
p2590
sg10
S'drv_Win32Sys'
p2591
sg796
g2268
sg14
(i__main__
LineCounts
p2592
(dp2593
g799
I0
sg800
I0
sg801
I0
sg802
I0
sg17
I1694
sg803
I0
sg804
I0
sbsg12
S'1.41'
p2594
sg18
S'D:\\Projects\\TXV_DRIVER\\drv_Win32Sys'
p2595
sba(i__main__
DirectoryToProcess
p2596
(dp2597
g8
S'1'
p2598
sg10
S'mTPC'
p2599
sg796
g2268
sg14
(i__main__
LineCounts
p2600
(dp2601
g799
I0
sg800
I0
sg801
I0
sg802
I0
sg17
I52790
sg803
I0
sg804
I0
sbsg12
S'1.42'
p2602
sg18
S'D:\\Projects\\TXV_DRIVER\\mTPC\\trunk'
p2603
sba(i__main__
DirectoryToProcess
p2604
(dp2605
g8
S'1'
p2606
sg10
S'txv_auto_rad'
p2607
sg796
g2268
sg14
(i__main__
LineCounts
p2608
(dp2609
g799
I0
sg800
I0
sg801
I0
sg802
I0
sg17
I12306
sg803
I0
sg804
I0
sbsg12
S'1.43'
p2610
sg18
S'D:\\Projects\\TXV_DRIVER\\txv_auto_rad'
p2611
sba(i__main__
DirectoryToProcess
p2612
(dp2613
g8
S'1'
p2614
sg10
S'txv_Bridge'
p2615
sg796
g2268
sg14
(i__main__
LineCounts
p2616
(dp2617
g799
I0
sg800
I0
sg801
I0
sg802
I0
sg17
I2591
sg803
I0
sg804
I0
sbsg12
S'1.44'
p2618
sg18
S'D:\\Projects\\TXV_DRIVER\\txv_Bridge'
p2619
sba(i__main__
DirectoryToProcess
p2620
(dp2621
g8
S'1'
p2622
sg10
S'txv_california'
p2623
sg796
g2268
sg14
(i__main__
LineCounts
p2624
(dp2625
g799
I0
sg800
I0
sg801
I0
sg802
I0
sg17
I855
sg803
I0
sg804
I0
sbsg12
S'1.45'
p2626
sg18
S'D:\\Projects\\TXV_DRIVER\\txv_california'
p2627
sba(i__main__
DirectoryToProcess
p2628
(dp2629
g8
S'1'
p2630
sg10
S'txv_wavetronix'
p2631
sg796
g2268
sg14
(i__main__
LineCounts
p2632
(dp2633
g799
I0
sg800
I0
sg801
I0
sg802
I0
sg17
I9051
sg803
I0
sg804
I0
sbsg12
S'1.46'
p2634
sg18
S'D:\\Projects\\TXV_DRIVER\\txv_wavetronix'
p2635
sba(i__main__
DirectoryToProcess
p2636
(dp2637
g8
S'-1'
p2638
sg10
S'TXV_PLATFORM'
p2639
sg796
Nsg14
(i__main__
LineCounts
p2640
(dp2641
g799
I0
sg800
I0
sg801
I0
sg802
I0
sg17
I756970
sg803
I0
sg804
I0
sbsg12
S'2'
p2642
sg18
S'D:\\Projects\\TXV_PLATFORM\\trunk'
p2643
sba(i__main__
DirectoryToProcess
p2644
(dp2645
g8
S'2'
p2646
sg10
S'Alarm_Management'
p2647
sg796
g2636
sg14
(i__main__
LineCounts
p2648
(dp2649
g799
I0
sg800
I0
sg801
I0
sg802
I0
sg17
I19248
sg803
I0
sg804
I0
sbsg12
S'2.1'
p2650
sg18
S'D:\\Projects\\TXV_PLATFORM\\trunk\\Alarm Management'
p2651
sba(i__main__
DirectoryToProcess
p2652
(dp2653
g8
S'2'
p2654
sg10
S'AVL'
p2655
sg796
g2636
sg14
(i__main__
LineCounts
p2656
(dp2657
g799
I0
sg800
I0
sg801
I0
sg802
I0
sg17
I29177
sg803
I0
sg804
I0
sbsg12
S'2.2'
p2658
sg18
S'D:\\Projects\\TXV_PLATFORM\\trunk\\AVL'
p2659
sba(i__main__
DirectoryToProcess
p2660
(dp2661
g8
S'2'
p2662
sg10
S'Base'
p2663
sg796
g2636
sg14
(i__main__
LineCounts
p2664
(dp2665
g799
I0
sg800
I0
sg801
I0
sg802
I0
sg17
I51767
sg803
I0
sg804
I0
sbsg12
S'2.3'
p2666
sg18
S'D:\\Projects\\TXV_PLATFORM\\trunk\\Base'
p2667
sba(i__main__
DirectoryToProcess
p2668
(dp2669
g8
S'2'
p2670
sg10
S'Common'
p2671
sg796
g2636
sg14
(i__main__
LineCounts
p2672
(dp2673
g799
I0
sg800
I0
sg801
I0
sg802
I0
sg17
I72639
sg803
I0
sg804
I0
sbsg12
S'2.4'
p2674
sg18
S'D:\\Projects\\TXV_PLATFORM\\trunk\\Common'
p2675
sba(i__main__
DirectoryToProcess
p2676
(dp2677
g8
S'2'
p2678
sg10
S'Designer'
p2679
sg796
g2636
sg14
(i__main__
LineCounts
p2680
(dp2681
g799
I0
sg800
I0
sg801
I0
sg802
I0
sg17
I105802
sg803
I0
sg804
I0
sbsg12
S'2.5'
p2682
sg18
S'D:\\Projects\\TXV_PLATFORM\\trunk\\Designer'
p2683
sba(i__main__
DirectoryToProcess
p2684
(dp2685
g8
S'2'
p2686
sg10
S'Device_Library'
p2687
sg796
g2636
sg14
(i__main__
LineCounts
p2688
(dp2689
g799
I0
sg800
I0
sg801
I0
sg802
I0
sg17
I98918
sg803
I0
sg804
I0
sbsg12
S'2.6'
p2690
sg18
S'D:\\Projects\\TXV_PLATFORM\\trunk\\Device Library'
p2691
sba(i__main__
DirectoryToProcess
p2692
(dp2693
g8
S'2'
p2694
sg10
S'Device_Simulator'
p2695
sg796
g2636
sg14
(i__main__
LineCounts
p2696
(dp2697
g799
I0
sg800
I0
sg801
I0
sg802
I0
sg17
I3077
sg803
I0
sg804
I0
sbsg12
S'2.7'
p2698
sg18
S'D:\\Projects\\TXV_PLATFORM\\trunk\\Device Simulator'
p2699
sba(i__main__
DirectoryToProcess
p2700
(dp2701
g8
S'2'
p2702
sg10
S'GUI'
p2703
sg796
g2636
sg14
(i__main__
LineCounts
p2704
(dp2705
g799
I0
sg800
I0
sg801
I0
sg802
I0
sg17
I246719
sg803
I0
sg804
I0
sbsg12
S'2.8'
p2706
sg18
S'D:\\Projects\\TXV_PLATFORM\\trunk\\GUI'
p2707
sba(i__main__
DirectoryToProcess
p2708
(dp2709
g8
S'2'
p2710
sg10
S'IM'
p2711
sg796
g2636
sg14
(i__main__
LineCounts
p2712
(dp2713
g799
I0
sg800
I0
sg801
I0
sg802
I0
sg17
I3108
sg803
I0
sg804
I0
sbsg12
S'2.9'
p2714
sg18
S'D:\\Projects\\TXV_PLATFORM\\trunk\\IM'
p2715
sba(i__main__
DirectoryToProcess
p2716
(dp2717
g8
S'2'
p2718
sg10
S'LED'
p2719
sg796
g2636
sg14
(i__main__
LineCounts
p2720
(dp2721
g799
I0
sg800
I0
sg801
I0
sg802
I0
sg17
I8975
sg803
I0
sg804
I0
sbsg12
S'2.10'
p2722
sg18
S'D:\\Projects\\TXV_PLATFORM\\trunk\\LED'
p2723
sba(i__main__
DirectoryToProcess
p2724
(dp2725
g8
S'2'
p2726
sg10
S'Parking'
p2727
sg796
g2636
sg14
(i__main__
LineCounts
p2728
(dp2729
g799
I0
sg800
I0
sg801
I0
sg802
I0
sg17
I8420
sg803
I0
sg804
I0
sbsg12
S'2.11'
p2730
sg18
S'D:\\Projects\\TXV_PLATFORM\\trunk\\Parking'
p2731
sba(i__main__
DirectoryToProcess
p2732
(dp2733
g8
S'2'
p2734
sg10
S'PTM'
p2735
sg796
g2636
sg14
(i__main__
LineCounts
p2736
(dp2737
g799
I0
sg800
I0
sg801
I0
sg802
I0
sg17
I5699
sg803
I0
sg804
I0
sbsg12
S'2.12'
p2738
sg18
S'D:\\Projects\\TXV_PLATFORM\\trunk\\PTM'
p2739
sba(i__main__
DirectoryToProcess
p2740
(dp2741
g8
S'2'
p2742
sg10
S'RWIS'
p2743
sg796
g2636
sg14
(i__main__
LineCounts
p2744
(dp2745
g799
I0
sg800
I0
sg801
I0
sg802
I0
sg17
I3875
sg803
I0
sg804
I0
sbsg12
S'2.13'
p2746
sg18
S'D:\\Projects\\TXV_PLATFORM\\trunk\\RWIS'
p2747
sba(i__main__
DirectoryToProcess
p2748
(dp2749
g8
S'2'
p2750
sg10
S'SCATS'
p2751
sg796
g2636
sg14
(i__main__
LineCounts
p2752
(dp2753
g799
I0
sg800
I0
sg801
I0
sg802
I0
sg17
I18329
sg803
I0
sg804
I0
sbsg12
S'2.14'
p2754
sg18
S'D:\\Projects\\TXV_PLATFORM\\trunk\\SCATS'
p2755
sba(i__main__
DirectoryToProcess
p2756
(dp2757
g8
S'2'
p2758
sg10
S'TTP'
p2759
sg796
g2636
sg14
(i__main__
LineCounts
p2760
(dp2761
g799
I0
sg800
I0
sg801
I0
sg802
I0
sg17
I2932
sg803
I0
sg804
I0
sbsg12
S'2.15'
p2762
sg18
S'D:\\Projects\\TXV_PLATFORM\\trunk\\TTP'
p2763
sba(i__main__
DirectoryToProcess
p2764
(dp2765
g8
S'2'
p2766
sg10
S'TVIS'
p2767
sg796
g2636
sg14
(i__main__
LineCounts
p2768
(dp2769
g799
I0
sg800
I0
sg801
I0
sg802
I0
sg17
I78285
sg803
I0
sg804
I0
sbsg12
S'2.16'
p2770
sg18
S'D:\\Projects\\TXV_PLATFORM\\trunk\\TVIS'
p2771
sba(i__main__
DirectoryToProcess
p2772
(dp2773
g8
S'-1'
p2774
sg10
S'TXV_CLIENT'
p2775
sg796
Nsg14
(i__main__
LineCounts
p2776
(dp2777
g799
I0
sg800
I0
sg801
I0
sg802
I0
sg17
I506037
sg803
I0
sg804
I0
sbsg12
S'3'
p2778
sg18
S'D:\\Projects\\TXV_CLIENT'
p2779
sba(i__main__
DirectoryToProcess
p2780
(dp2781
g8
S'3'
p2782
sg10
S'AutomationServer'
p2783
sg796
g2772
sg14
(i__main__
LineCounts
p2784
(dp2785
g799
I0
sg800
I0
sg801
I0
sg802
I0
sg17
I11120
sg803
I0
sg804
I0
sbsg12
S'3.1'
p2786
sg18
S'D:\\Projects\\TXV_CLIENT\\AutomationServer'
p2787
sba(i__main__
DirectoryToProcess
p2788
(dp2789
g8
S'3'
p2790
sg10
S'DataIntegrity'
p2791
sg796
g2772
sg14
(i__main__
LineCounts
p2792
(dp2793
g799
I0
sg800
I0
sg801
I0
sg802
I0
sg17
I615
sg803
I0
sg804
I0
sbsg12
S'3.2'
p2794
sg18
S'D:\\Projects\\TXV_CLIENT\\DataIntegrity'
p2795
sba(i__main__
DirectoryToProcess
p2796
(dp2797
g8
S'3'
p2798
sg10
S'NTCIP_C2C'
p2799
sg796
g2772
sg14
(i__main__
LineCounts
p2800
(dp2801
g799
I0
sg800
I0
sg801
I0
sg802
I0
sg17
I64884
sg803
I0
sg804
I0
sbsg12
S'3.3'
p2802
sg18
S'D:\\Projects\\TXV_CLIENT\\NTCIP_C2C'
p2803
sba(i__main__
DirectoryToProcess
p2804
(dp2805
g8
S'3'
p2806
sg10
S'NTCIP_C2F'
p2807
sg796
g2772
sg14
(i__main__
LineCounts
p2808
(dp2809
g799
I0
sg800
I0
sg801
I0
sg802
I0
sg17
I62528
sg803
I0
sg804
I0
sbsg12
S'3.4'
p2810
sg18
S'D:\\Projects\\TXV_CLIENT\\NTCIP_C2F'
p2811
sba(i__main__
DirectoryToProcess
p2812
(dp2813
g8
S'3'
p2814
sg10
S'OM_Interface'
p2815
sg796
g2772
sg14
(i__main__
LineCounts
p2816
(dp2817
g799
I0
sg800
I0
sg801
I0
sg802
I0
sg17
I3127
sg803
I0
sg804
I0
sbsg12
S'3.5'
p2818
sg18
S'D:\\Projects\\TXV_CLIENT\\OM_Interface'
p2819
sba(i__main__
DirectoryToProcess
p2820
(dp2821
g8
S'3'
p2822
sg10
S'ScenarioManager2'
p2823
sg796
g2772
sg14
(i__main__
LineCounts
p2824
(dp2825
g799
I0
sg800
I0
sg801
I0
sg802
I0
sg17
I14778
sg803
I0
sg804
I0
sbsg12
S'3.6'
p2826
sg18
S'D:\\Projects\\TXV_CLIENT\\ScenarioManager2'
p2827
sba(i__main__
DirectoryToProcess
p2828
(dp2829
g8
S'3'
p2830
sg10
S'scenario_manager'
p2831
sg796
g2772
sg14
(i__main__
LineCounts
p2832
(dp2833
g799
I0
sg800
I0
sg801
I0
sg802
I0
sg17
I7026
sg803
I0
sg804
I0
sbsg12
S'3.7'
p2834
sg18
S'D:\\Projects\\TXV_CLIENT\\scenario_manager'
p2835
sba(i__main__
DirectoryToProcess
p2836
(dp2837
g8
S'3'
p2838
sg10
S'SpeedEnforcement'
p2839
sg796
g2772
sg14
(i__main__
LineCounts
p2840
(dp2841
g799
I0
sg800
I0
sg801
I0
sg802
I0
sg17
I8436
sg803
I0
sg804
I0
sbsg12
S'3.8'
p2842
sg18
S'D:\\Projects\\TXV_CLIENT\\SpeedEnforcement\\trunk\\src'
p2843
sba(i__main__
DirectoryToProcess
p2844
(dp2845
g8
S'3'
p2846
sg10
S'test_app'
p2847
sg796
g2772
sg14
(i__main__
LineCounts
p2848
(dp2849
g799
I0
sg800
I0
sg801
I0
sg802
I0
sg17
I5788
sg803
I0
sg804
I0
sbsg12
S'3.9'
p2850
sg18
S'D:\\Projects\\TXV_CLIENT\\test_app'
p2851
sba(i__main__
DirectoryToProcess
p2852
(dp2853
g8
S'3'
p2854
sg10
S'tXv_PDA_App'
p2855
sg796
g2772
sg14
(i__main__
LineCounts
p2856
(dp2857
g799
I0
sg800
I0
sg801
I0
sg802
I0
sg17
I2304
sg803
I0
sg804
I0
sbsg12
S'3.10'
p2858
sg18
S'D:\\Projects\\TXV_CLIENT\\tXv PDA App'
p2859
sba(i__main__
DirectoryToProcess
p2860
(dp2861
g8
S'3'
p2862
sg10
S'TXV_DATEX2'
p2863
sg796
g2772
sg14
(i__main__
LineCounts
p2864
(dp2865
g799
I0
sg800
I0
sg801
I0
sg802
I0
sg17
I32753
sg803
I0
sg804
I0
sbsg12
S'3.11'
p2866
sg18
S'D:\\Projects\\TXV_CLIENT\\TXV_DATEX2'
p2867
sba(i__main__
DirectoryToProcess
p2868
(dp2869
g8
S'3'
p2870
sg10
S'TXV_GUI_1'
p2871
sg796
g2772
sg14
(i__main__
LineCounts
p2872
(dp2873
g799
I0
sg800
I0
sg801
I0
sg802
I0
sg17
I268797
sg803
I0
sg804
I0
sbsg12
S'3.12'
p2874
sg18
S'D:\\Projects\\TXV_CLIENT\\TXV_GUI'
p2875
sba(i__main__
DirectoryToProcess
p2876
(dp2877
g8
S'3'
p2878
sg10
S'TXV_SERVICE'
p2879
sg796
g2772
sg14
(i__main__
LineCounts
p2880
(dp2881
g799
I0
sg800
I0
sg801
I0
sg802
I0
sg17
I2315
sg803
I0
sg804
I0
sbsg12
S'3.13'
p2882
sg18
S'D:\\Projects\\TXV_CLIENT\\TXV_SERVICE'
p2883
sba(i__main__
DirectoryToProcess
p2884
(dp2885
g8
S'3'
p2886
sg10
S'TXV_TFP'
p2887
sg796
g2772
sg14
(i__main__
LineCounts
p2888
(dp2889
g799
I0
sg800
I0
sg801
I0
sg802
I0
sg17
I19562
sg803
I0
sg804
I0
sbsg12
S'3.14'
p2890
sg18
S'D:\\Projects\\TXV_CLIENT\\TXV_TFP'
p2891
sba(i__main__
DirectoryToProcess
p2892
(dp2893
g8
S'3'
p2894
sg10
S'TXV_TTPRo'
p2895
sg796
g2772
sg14
(i__main__
LineCounts
p2896
(dp2897
g799
I0
sg800
I0
sg801
I0
sg802
I0
sg17
I2004
sg803
I0
sg804
I0
sbsg12
S'3.15'
p2898
sg18
S'D:\\Projects\\TXV_CLIENT\\TXV_TTPRo'
p2899
sba(i__main__
DirectoryToProcess
p2900
(dp2901
g8
S'-1'
p2902
sg10
S'TXV_CORE'
p2903
sg796
Nsg14
(i__main__
LineCounts
p2904
(dp2905
g799
I0
sg800
I0
sg801
I0
sg802
I0
sg17
I115446
sg803
I0
sg804
I0
sbsg12
S'4'
p2906
sg18
S'D:\\Projects\\TXV_CORE'
p2907
sba(i__main__
DirectoryToProcess
p2908
(dp2909
g8
S'4'
p2910
sg10
S'C_LIBRARY'
p2911
sg796
g2900
sg14
(i__main__
LineCounts
p2912
(dp2913
g799
I0
sg800
I0
sg801
I0
sg802
I0
sg17
I27679
sg803
I0
sg804
I0
sbsg12
S'4.1'
p2914
sg18
S'D:\\Projects\\TXV_CORE\\C_LIBRARY'
p2915
sba(i__main__
DirectoryToProcess
p2916
(dp2917
g8
S'4'
p2918
sg10
S'C_LIBRARY-branch-datasequencing'
p2919
sg796
g2900
sg14
(i__main__
LineCounts
p2920
(dp2921
g799
I0
sg800
I0
sg801
I0
sg802
I0
sg17
I27738
sg803
I0
sg804
I0
sbsg12
S'4.2'
p2922
sg18
S'D:\\Projects\\TXV_CORE\\C_LIBRARY-branch-datasequencing'
p2923
sba(i__main__
DirectoryToProcess
p2924
(dp2925
g8
S'4'
p2926
sg10
S'historian'
p2927
sg796
g2900
sg14
(i__main__
LineCounts
p2928
(dp2929
g799
I0
sg800
I0
sg801
I0
sg802
I0
sg17
I6361
sg803
I0
sg804
I0
sbsg12
S'4.3'
p2930
sg18
S'D:\\Projects\\TXV_CORE\\historian\\trunk'
p2931
sba(i__main__
DirectoryToProcess
p2932
(dp2933
g8
S'4'
p2934
sg10
S'tXv_Jezgra'
p2935
sg796
g2900
sg14
(i__main__
LineCounts
p2936
(dp2937
g799
I0
sg800
I0
sg801
I0
sg802
I0
sg17
I41430
sg803
I0
sg804
I0
sbsg12
S'4.4'
p2938
sg18
S'D:\\Projects\\TXV_CORE\\tXv Jezgra'
p2939
sba(i__main__
DirectoryToProcess
p2940
(dp2941
g8
S'4'
p2942
sg10
S'txv_Filter_HR'
p2943
sg796
g2900
sg14
(i__main__
LineCounts
p2944
(dp2945
g799
I0
sg800
I0
sg801
I0
sg802
I0
sg17
I2645
sg803
I0
sg804
I0
sbsg12
S'4.5'
p2946
sg18
S'D:\\Projects\\TXV_CORE\\txv_Filter_HR'
p2947
sba(i__main__
DirectoryToProcess
p2948
(dp2949
g8
S'4'
p2950
sg10
S'UserRights'
p2951
sg796
g2900
sg14
(i__main__
LineCounts
p2952
(dp2953
g799
I0
sg800
I0
sg801
I0
sg802
I0
sg17
I9593
sg803
I0
sg804
I0
sbsg12
S'4.6'
p2954
sg18
S'D:\\Projects\\TXV_CORE\\UserRights'
p2955
sba(i__main__
DirectoryToProcess
p2956
(dp2957
g8
S'-1'
p2958
sg10
S'TXV_VIDEO'
p2959
sg796
Nsg14
(i__main__
LineCounts
p2960
(dp2961
g799
I0
sg800
I0
sg801
I0
sg802
I0
sg17
I107919
sg803
I0
sg804
I0
sbsg12
S'5'
p2962
sg18
S'D:\\Projects\\TXV_VIDEO'
p2963
sba(i__main__
DirectoryToProcess
p2964
(dp2965
g8
S'5'
p2966
sg10
S'drv_EyeConn'
p2967
sg796
g2956
sg14
(i__main__
LineCounts
p2968
(dp2969
g799
I0
sg800
I0
sg801
I0
sg802
I0
sg17
I4610
sg803
I0
sg804
I0
sbsg12
S'5.1'
p2970
sg18
S'D:\\Projects\\TXV_VIDEO\\drv_EyeConn'
p2971
sba(i__main__
DirectoryToProcess
p2972
(dp2973
g8
S'5'
p2974
sg10
S'drv_PTZ'
p2975
sg796
g2956
sg14
(i__main__
LineCounts
p2976
(dp2977
g799
I0
sg800
I0
sg801
I0
sg802
I0
sg17
I5651
sg803
I0
sg804
I0
sbsg12
S'5.2'
p2978
sg18
S'D:\\Projects\\TXV_VIDEO\\drv_PTZ'
p2979
sba(i__main__
DirectoryToProcess
p2980
(dp2981
g8
S'5'
p2982
sg10
S'drv_VideoTPS'
p2983
sg796
g2956
sg14
(i__main__
LineCounts
p2984
(dp2985
g799
I0
sg800
I0
sg801
I0
sg802
I0
sg17
I1833
sg803
I0
sg804
I0
sbsg12
S'5.3'
p2986
sg18
S'D:\\Projects\\TXV_VIDEO\\drv_VideoTPS'
p2987
sba(i__main__
DirectoryToProcess
p2988
(dp2989
g8
S'5'
p2990
sg10
S'KeyboardDriver'
p2991
sg796
g2956
sg14
(i__main__
LineCounts
p2992
(dp2993
g799
I0
sg800
I0
sg801
I0
sg802
I0
sg17
I9369
sg803
I0
sg804
I0
sbsg12
S'5.4'
p2994
sg18
S'D:\\Projects\\TXV_VIDEO\\KeyboardDriver'
p2995
sba(i__main__
DirectoryToProcess
p2996
(dp2997
g8
S'5'
p2998
sg10
S'NVR'
p2999
sg796
g2956
sg14
(i__main__
LineCounts
p3000
(dp3001
g799
I0
sg800
I0
sg801
I0
sg802
I0
sg17
I35246
sg803
I0
sg804
I0
sbsg12
S'5.5'
p3002
sg18
S'D:\\Projects\\TXV_VIDEO\\NVR'
p3003
sba(i__main__
DirectoryToProcess
p3004
(dp3005
g8
S'5'
p3006
sg10
S'NVRConnDLL'
p3007
sg796
g2956
sg14
(i__main__
LineCounts
p3008
(dp3009
g799
I0
sg800
I0
sg801
I0
sg802
I0
sg17
I2970
sg803
I0
sg804
I0
sbsg12
S'5.6'
p3010
sg18
S'D:\\Projects\\TXV_VIDEO\\NVRConnDLL'
p3011
sba(i__main__
DirectoryToProcess
p3012
(dp3013
g8
S'5'
p3014
sg10
S'NVRConsole'
p3015
sg796
g2956
sg14
(i__main__
LineCounts
p3016
(dp3017
g799
I0
sg800
I0
sg801
I0
sg802
I0
sg17
I19043
sg803
I0
sg804
I0
sbsg12
S'5.7'
p3018
sg18
S'D:\\Projects\\TXV_VIDEO\\NVRConsole'
p3019
sba(i__main__
DirectoryToProcess
p3020
(dp3021
g8
S'5'
p3022
sg10
S'VideoPlayer'
p3023
sg796
g2956
sg14
(i__main__
LineCounts
p3024
(dp3025
g799
I0
sg800
I0
sg801
I0
sg802
I0
sg17
I29197
sg803
I0
sg804
I0
sbsg12
S'5.8'
p3026
sg18
S'D:\\Projects\\TXV_VIDEO\\VideoPlayer'
p3027
sba(i__main__
DirectoryToProcess
p3028
(dp3029
g8
S'-1'
p3030
sg10
S'TXV_INTERNAL'
p3031
sg796
Nsg14
(i__main__
LineCounts
p3032
(dp3033
g799
I0
sg800
I0
sg801
I0
sg802
I0
sg17
I46773
sg803
I0
sg804
I0
sbsg12
S'6'
p3034
sg18
S'D:\\Projects\\TXV_INTERNAL'
p3035
sba(i__main__
DirectoryToProcess
p3036
(dp3037
g8
S'6'
p3038
sg10
S'Nemesis'
p3039
sg796
g3028
sg14
(i__main__
LineCounts
p3040
(dp3041
g799
I0
sg800
I0
sg801
I0
sg802
I0
sg17
I46773
sg803
I0
sg804
I0
sbsg12
S'6.1'
p3042
sg18
S'D:\\Projects\\TXV_INTERNAL\\Nemesis'
p3043
sbasg1
(S'\x07\xdb\x05\x13\x0e\x1a\x10\x0b\x9c\xa8'
p3044
tp3045
Rp3046
(lp3047
(i__main__
DirectoryToProcess
p3048
(dp3049
g8
S'-1'
p3050
sg10
S'TXV_DRIVER'
p3051
sg796
Nsg14
(i__main__
LineCounts
p3052
(dp3053
g799
I0
sg800
I0
sg801
I0
sg802
I0
sg17
I423574
sg803
I0
sg804
I0
sbsg12
S'1'
p3054
sg18
S'D:\\Projects\\TXV_DRIVER'
p3055
sba(i__main__
DirectoryToProcess
p3056
(dp3057
g8
S'1'
p3058
sg10
S'Autoscope_driver'
p3059
sg796
g3048
sg14
(i__main__
LineCounts
p3060
(dp3061
g799
I0
sg800
I0
sg801
I0
sg802
I0
sg17
I10830
sg803
I0
sg804
I0
sbsg12
S'1.1'
p3062
sg18
S'D:\\Projects\\TXV_DRIVER\\drv_autoscope'
p3063
sba(i__main__
DirectoryToProcess
p3064
(dp3065
g8
S'1'
p3066
sg10
S'Autosense_driver'
p3067
sg796
g3048
sg14
(i__main__
LineCounts
p3068
(dp3069
g799
I0
sg800
I0
sg801
I0
sg802
I0
sg17
I5339
sg803
I0
sg804
I0
sbsg12
S'1.2'
p3070
sg18
S'D:\\Projects\\TXV_DRIVER\\drv_Autosense'
p3071
sba(i__main__
DirectoryToProcess
p3072
(dp3073
g8
S'1'
p3074
sg10
S'AVL_driver'
p3075
sg796
g3048
sg14
(i__main__
LineCounts
p3076
(dp3077
g799
I0
sg800
I0
sg801
I0
sg802
I0
sg17
I1180
sg803
I0
sg804
I0
sbsg12
S'1.3'
p3078
sg18
S'D:\\Projects\\TXV_DRIVER\\drv_AVL'
p3079
sba(i__main__
DirectoryToProcess
p3080
(dp3081
g8
S'1'
p3082
sg10
S'drv_bosch'
p3083
sg796
g3048
sg14
(i__main__
LineCounts
p3084
(dp3085
g799
I0
sg800
I0
sg801
I0
sg802
I0
sg17
I4120
sg803
I0
sg804
I0
sbsg12
S'1.4'
p3086
sg18
S'D:\\Projects\\TXV_DRIVER\\drv_bosch'
p3087
sba(i__main__
DirectoryToProcess
p3088
(dp3089
g8
S'1'
p3090
sg10
S'drv_dbsql'
p3091
sg796
g3048
sg14
(i__main__
LineCounts
p3092
(dp3093
g799
I0
sg800
I0
sg801
I0
sg802
I0
sg17
I8771
sg803
I0
sg804
I0
sbsg12
S'1.5'
p3094
sg18
S'D:\\Projects\\TXV_DRIVER\\drv_dbsql'
p3095
sba(i__main__
DirectoryToProcess
p3096
(dp3097
g8
S'1'
p3098
sg10
S'drv_dohvat'
p3099
sg796
g3048
sg14
(i__main__
LineCounts
p3100
(dp3101
g799
I0
sg800
I0
sg801
I0
sg802
I0
sg17
I3395
sg803
I0
sg804
I0
sbsg12
S'1.6'
p3102
sg18
S'D:\\Projects\\TXV_DRIVER\\drv_dohvat'
p3103
sba(i__main__
DirectoryToProcess
p3104
(dp3105
g8
S'1'
p3106
sg10
S'drv_enforcement'
p3107
sg796
g3048
sg14
(i__main__
LineCounts
p3108
(dp3109
g799
I0
sg800
I0
sg801
I0
sg802
I0
sg17
I6716
sg803
I0
sg804
I0
sbsg12
S'1.7'
p3110
sg18
S'D:\\Projects\\TXV_DRIVER\\drv_enforcement'
p3111
sba(i__main__
DirectoryToProcess
p3112
(dp3113
g8
S'1'
p3114
sg10
S'drv_eventmanager'
p3115
sg796
g3048
sg14
(i__main__
LineCounts
p3116
(dp3117
g799
I0
sg800
I0
sg801
I0
sg802
I0
sg17
I6945
sg803
I0
sg804
I0
sbsg12
S'1.8'
p3118
sg18
S'D:\\Projects\\TXV_DRIVER\\drv_eventmanager'
p3119
sba(i__main__
DirectoryToProcess
p3120
(dp3121
g8
S'1'
p3122
sg10
S'drv_FMS'
p3123
sg796
g3048
sg14
(i__main__
LineCounts
p3124
(dp3125
g799
I0
sg800
I0
sg801
I0
sg802
I0
sg17
I4242
sg803
I0
sg804
I0
sbsg12
S'1.9'
p3126
sg18
S'D:\\Projects\\TXV_DRIVER\\drv_FMS'
p3127
sba(i__main__
DirectoryToProcess
p3128
(dp3129
g8
S'1'
p3130
sg10
S'drv_GatsoGet'
p3131
sg796
g3048
sg14
(i__main__
LineCounts
p3132
(dp3133
g799
I0
sg800
I0
sg801
I0
sg802
I0
sg17
I2034
sg803
I0
sg804
I0
sbsg12
S'1.10'
p3134
sg18
S'D:\\Projects\\TXV_DRIVER\\drv_GatsoGet'
p3135
sba(i__main__
DirectoryToProcess
p3136
(dp3137
g8
S'1'
p3138
sg10
S'drv_GPRS'
p3139
sg796
g3048
sg14
(i__main__
LineCounts
p3140
(dp3141
g799
I0
sg800
I0
sg801
I0
sg802
I0
sg17
I5711
sg803
I0
sg804
I0
sbsg12
S'1.11'
p3142
sg18
S'D:\\Projects\\TXV_DRIVER\\drv_GPRS'
p3143
sba(i__main__
DirectoryToProcess
p3144
(dp3145
g8
S'1'
p3146
sg10
S'drv_gprs_tps'
p3147
sg796
g3048
sg14
(i__main__
LineCounts
p3148
(dp3149
g799
I0
sg800
I0
sg801
I0
sg802
I0
sg17
I6285
sg803
I0
sg804
I0
sbsg12
S'1.12'
p3150
sg18
S'D:\\Projects\\TXV_DRIVER\\drv_gprs_tps'
p3151
sba(i__main__
DirectoryToProcess
p3152
(dp3153
g8
S'1'
p3154
sg10
S'drv_IncidentManagement'
p3155
sg796
g3048
sg14
(i__main__
LineCounts
p3156
(dp3157
g799
I0
sg800
I0
sg801
I0
sg802
I0
sg17
I379
sg803
I0
sg804
I0
sbsg12
S'1.13'
p3158
sg18
S'D:\\Projects\\TXV_DRIVER\\drv_IncidentManagement'
p3159
sba(i__main__
DirectoryToProcess
p3160
(dp3161
g8
S'1'
p3162
sg10
S'drv_lpr'
p3163
sg796
g3048
sg14
(i__main__
LineCounts
p3164
(dp3165
g799
I0
sg800
I0
sg801
I0
sg802
I0
sg17
I1412
sg803
I0
sg804
I0
sbsg12
S'1.14'
p3166
sg18
S'D:\\Projects\\TXV_DRIVER\\drv_lpr'
p3167
sba(i__main__
DirectoryToProcess
p3168
(dp3169
g8
S'1'
p3170
sg10
S'drv_lpr_sim'
p3171
sg796
g3048
sg14
(i__main__
LineCounts
p3172
(dp3173
g799
I0
sg800
I0
sg801
I0
sg802
I0
sg17
I1276
sg803
I0
sg804
I0
sbsg12
S'1.15'
p3174
sg18
S'D:\\Projects\\TXV_DRIVER\\drv_lpr_sim'
p3175
sba(i__main__
DirectoryToProcess
p3176
(dp3177
g8
S'1'
p3178
sg10
S'drv_modbus'
p3179
sg796
g3048
sg14
(i__main__
LineCounts
p3180
(dp3181
g799
I0
sg800
I0
sg801
I0
sg802
I0
sg17
I16175
sg803
I0
sg804
I0
sbsg12
S'1.16'
p3182
sg18
S'D:\\Projects\\TXV_DRIVER\\drv_modbus'
p3183
sba(i__main__
DirectoryToProcess
p3184
(dp3185
g8
S'1'
p3186
sg10
S'drv_MQSimulator'
p3187
sg796
g3048
sg14
(i__main__
LineCounts
p3188
(dp3189
g799
I0
sg800
I0
sg801
I0
sg802
I0
sg17
I1200
sg803
I0
sg804
I0
sbsg12
S'1.17'
p3190
sg18
S'D:\\Projects\\TXV_DRIVER\\drv_MQSimulator'
p3191
sba(i__main__
DirectoryToProcess
p3192
(dp3193
g8
S'1'
p3194
sg10
S'drv_msg_lib'
p3195
sg796
g3048
sg14
(i__main__
LineCounts
p3196
(dp3197
g799
I0
sg800
I0
sg801
I0
sg802
I0
sg17
I5156
sg803
I0
sg804
I0
sbsg12
S'1.18'
p3198
sg18
S'D:\\Projects\\TXV_DRIVER\\drv_msg_lib'
p3199
sba(i__main__
DirectoryToProcess
p3200
(dp3201
g8
S'1'
p3202
sg10
S'drv_opc'
p3203
sg796
g3048
sg14
(i__main__
LineCounts
p3204
(dp3205
g799
I0
sg800
I0
sg801
I0
sg802
I0
sg17
I7526
sg803
I0
sg804
I0
sbsg12
S'1.20'
p3206
sg18
S'D:\\Projects\\TXV_DRIVER\\drv_opc'
p3207
sba(i__main__
DirectoryToProcess
p3208
(dp3209
g8
S'1'
p3210
sg10
S'drv_Parking'
p3211
sg796
g3048
sg14
(i__main__
LineCounts
p3212
(dp3213
g799
I0
sg800
I0
sg801
I0
sg802
I0
sg17
I1920
sg803
I0
sg804
I0
sbsg12
S'1.21'
p3214
sg18
S'D:\\Projects\\TXV_DRIVER\\drv_Parking'
p3215
sba(i__main__
DirectoryToProcess
p3216
(dp3217
g8
S'1'
p3218
sg10
S'drv_PDA'
p3219
sg796
g3048
sg14
(i__main__
LineCounts
p3220
(dp3221
g799
I0
sg800
I0
sg801
I0
sg802
I0
sg17
I4841
sg803
I0
sg804
I0
sbsg12
S'1.22'
p3222
sg18
S'D:\\Projects\\TXV_DRIVER\\drv_PDA'
p3223
sba(i__main__
DirectoryToProcess
p3224
(dp3225
g8
S'1'
p3226
sg10
S'drv_prom'
p3227
sg796
g3048
sg14
(i__main__
LineCounts
p3228
(dp3229
g799
I0
sg800
I0
sg801
I0
sg802
I0
sg17
I15878
sg803
I0
sg804
I0
sbsg12
S'1.23'
p3230
sg18
S'D:\\Projects\\TXV_DRIVER\\drv_prom'
p3231
sba(i__main__
DirectoryToProcess
p3232
(dp3233
g8
S'1'
p3234
sg10
S'drv_prom_P'
p3235
sg796
g3048
sg14
(i__main__
LineCounts
p3236
(dp3237
g799
I0
sg800
I0
sg801
I0
sg802
I0
sg17
I47234
sg803
I0
sg804
I0
sbsg12
S'1.24'
p3238
sg18
S'D:\\Projects\\TXV_DRIVER\\drv_prom_P'
p3239
sba(i__main__
DirectoryToProcess
p3240
(dp3241
g8
S'1'
p3242
sg10
S'drv_PTM'
p3243
sg796
g3048
sg14
(i__main__
LineCounts
p3244
(dp3245
g799
I0
sg800
I0
sg801
I0
sg802
I0
sg17
I2926
sg803
I0
sg804
I0
sbsg12
S'1.25'
p3246
sg18
S'D:\\Projects\\TXV_DRIVER\\drv_PTM'
p3247
sba(i__main__
DirectoryToProcess
p3248
(dp3249
g8
S'1'
p3250
sg10
S'drv_Quercus'
p3251
sg796
g3048
sg14
(i__main__
LineCounts
p3252
(dp3253
g799
I0
sg800
I0
sg801
I0
sg802
I0
sg17
I8460
sg803
I0
sg804
I0
sbsg12
S'1.26'
p3254
sg18
S'D:\\Projects\\TXV_DRIVER\\drv_Quercus'
p3255
sba(i__main__
DirectoryToProcess
p3256
(dp3257
g8
S'1'
p3258
sg10
S'drv_Raktel'
p3259
sg796
g3048
sg14
(i__main__
LineCounts
p3260
(dp3261
g799
I0
sg800
I0
sg801
I0
sg802
I0
sg17
I29198
sg803
I0
sg804
I0
sbsg12
S'1.27'
p3262
sg18
S'D:\\Projects\\TXV_DRIVER\\drv_Raktel'
p3263
sba(i__main__
DirectoryToProcess
p3264
(dp3265
g8
S'1'
p3266
sg10
S'drv_Raktel_Simulator'
p3267
sg796
g3048
sg14
(i__main__
LineCounts
p3268
(dp3269
g799
I0
sg800
I0
sg801
I0
sg802
I0
sg17
I6472
sg803
I0
sg804
I0
sbsg12
S'1.28'
p3270
sg18
S'D:\\Projects\\TXV_DRIVER\\drv_Raktel_Simulator'
p3271
sba(i__main__
DirectoryToProcess
p3272
(dp3273
g8
S'1'
p3274
sg10
S'drv_Repository'
p3275
sg796
g3048
sg14
(i__main__
LineCounts
p3276
(dp3277
g799
I0
sg800
I0
sg801
I0
sg802
I0
sg17
I3047
sg803
I0
sg804
I0
sbsg12
S'1.29'
p3278
sg18
S'D:\\Projects\\TXV_DRIVER\\drv_Repository'
p3279
sba(i__main__
DirectoryToProcess
p3280
(dp3281
g8
S'1'
p3282
sg10
S'drv_SCATS'
p3283
sg796
g3048
sg14
(i__main__
LineCounts
p3284
(dp3285
g799
I0
sg800
I0
sg801
I0
sg802
I0
sg17
I6631
sg803
I0
sg804
I0
sbsg12
S'1.30'
p3286
sg18
S'D:\\Projects\\TXV_DRIVER\\drv_SCATS'
p3287
sba(i__main__
DirectoryToProcess
p3288
(dp3289
g8
S'1'
p3290
sg10
S'drv_sepura'
p3291
sg796
g3048
sg14
(i__main__
LineCounts
p3292
(dp3293
g799
I0
sg800
I0
sg801
I0
sg802
I0
sg17
I3393
sg803
I0
sg804
I0
sbsg12
S'1.31'
p3294
sg18
S'D:\\Projects\\TXV_DRIVER\\drv_sepura'
p3295
sba(i__main__
DirectoryToProcess
p3296
(dp3297
g8
S'1'
p3298
sg10
S'drv_SipPhone'
p3299
sg796
g3048
sg14
(i__main__
LineCounts
p3300
(dp3301
g799
I0
sg800
I0
sg801
I0
sg802
I0
sg17
I4069
sg803
I0
sg804
I0
sbsg12
S'1.32'
p3302
sg18
S'D:\\Projects\\TXV_DRIVER\\drv_SipPhone'
p3303
sba(i__main__
DirectoryToProcess
p3304
(dp3305
g8
S'1'
p3306
sg10
S'drv_snmp'
p3307
sg796
g3048
sg14
(i__main__
LineCounts
p3308
(dp3309
g799
I0
sg800
I0
sg801
I0
sg802
I0
sg17
I3669
sg803
I0
sg804
I0
sbsg12
S'1.33'
p3310
sg18
S'D:\\Projects\\TXV_DRIVER\\drv_snmp'
p3311
sba(i__main__
DirectoryToProcess
p3312
(dp3313
g8
S'1'
p3314
sg10
S'drv_tps'
p3315
sg796
g3048
sg14
(i__main__
LineCounts
p3316
(dp3317
g799
I0
sg800
I0
sg801
I0
sg802
I0
sg17
I34380
sg803
I0
sg804
I0
sbsg12
S'1.34'
p3318
sg18
S'D:\\Projects\\TXV_DRIVER\\drv_tps\\trunk'
p3319
sba(i__main__
DirectoryToProcess
p3320
(dp3321
g8
S'1'
p3322
sg10
S'drv_Traficon'
p3323
sg796
g3048
sg14
(i__main__
LineCounts
p3324
(dp3325
g799
I0
sg800
I0
sg801
I0
sg802
I0
sg17
I2139
sg803
I0
sg804
I0
sbsg12
S'1.35'
p3326
sg18
S'D:\\Projects\\TXV_DRIVER\\drv_Traficon'
p3327
sba(i__main__
DirectoryToProcess
p3328
(dp3329
g8
S'1'
p3330
sg10
S'drv_VBA'
p3331
sg796
g3048
sg14
(i__main__
LineCounts
p3332
(dp3333
g799
I0
sg800
I0
sg801
I0
sg802
I0
sg17
I4121
sg803
I0
sg804
I0
sbsg12
S'1.36'
p3334
sg18
S'D:\\Projects\\TXV_DRIVER\\drv_VBA'
p3335
sba(i__main__
DirectoryToProcess
p3336
(dp3337
g8
S'1'
p3338
sg10
S'drv_Vidos'
p3339
sg796
g3048
sg14
(i__main__
LineCounts
p3340
(dp3341
g799
I0
sg800
I0
sg801
I0
sg802
I0
sg17
I309
sg803
I0
sg804
I0
sbsg12
S'1.37'
p3342
sg18
S'D:\\Projects\\TXV_DRIVER\\drv_Vidos'
p3343
sba(i__main__
DirectoryToProcess
p3344
(dp3345
g8
S'1'
p3346
sg10
S'drv_vmatrix'
p3347
sg796
g3048
sg14
(i__main__
LineCounts
p3348
(dp3349
g799
I0
sg800
I0
sg801
I0
sg802
I0
sg17
I3890
sg803
I0
sg804
I0
sbsg12
S'1.38'
p3350
sg18
S'D:\\Projects\\TXV_DRIVER\\drv_vmatrix'
p3351
sba(i__main__
DirectoryToProcess
p3352
(dp3353
g8
S'1'
p3354
sg10
S'drv_voip_pbx'
p3355
sg796
g3048
sg14
(i__main__
LineCounts
p3356
(dp3357
g799
I0
sg800
I0
sg801
I0
sg802
I0
sg17
I55589
sg803
I0
sg804
I0
sbsg12
S'1.39'
p3358
sg18
S'D:\\Projects\\TXV_DRIVER\\drv_voip_pbx'
p3359
sba(i__main__
DirectoryToProcess
p3360
(dp3361
g8
S'1'
p3362
sg10
S'drv_voip_tps'
p3363
sg796
g3048
sg14
(i__main__
LineCounts
p3364
(dp3365
g799
I0
sg800
I0
sg801
I0
sg802
I0
sg17
I7429
sg803
I0
sg804
I0
sbsg12
S'1.40'
p3366
sg18
S'D:\\Projects\\TXV_DRIVER\\drv_voip_tps'
p3367
sba(i__main__
DirectoryToProcess
p3368
(dp3369
g8
S'1'
p3370
sg10
S'drv_Win32Sys'
p3371
sg796
g3048
sg14
(i__main__
LineCounts
p3372
(dp3373
g799
I0
sg800
I0
sg801
I0
sg802
I0
sg17
I1694
sg803
I0
sg804
I0
sbsg12
S'1.41'
p3374
sg18
S'D:\\Projects\\TXV_DRIVER\\drv_Win32Sys'
p3375
sba(i__main__
DirectoryToProcess
p3376
(dp3377
g8
S'1'
p3378
sg10
S'mTPC'
p3379
sg796
g3048
sg14
(i__main__
LineCounts
p3380
(dp3381
g799
I0
sg800
I0
sg801
I0
sg802
I0
sg17
I52790
sg803
I0
sg804
I0
sbsg12
S'1.42'
p3382
sg18
S'D:\\Projects\\TXV_DRIVER\\mTPC\\trunk'
p3383
sba(i__main__
DirectoryToProcess
p3384
(dp3385
g8
S'1'
p3386
sg10
S'txv_auto_rad'
p3387
sg796
g3048
sg14
(i__main__
LineCounts
p3388
(dp3389
g799
I0
sg800
I0
sg801
I0
sg802
I0
sg17
I12306
sg803
I0
sg804
I0
sbsg12
S'1.43'
p3390
sg18
S'D:\\Projects\\TXV_DRIVER\\txv_auto_rad'
p3391
sba(i__main__
DirectoryToProcess
p3392
(dp3393
g8
S'1'
p3394
sg10
S'txv_Bridge'
p3395
sg796
g3048
sg14
(i__main__
LineCounts
p3396
(dp3397
g799
I0
sg800
I0
sg801
I0
sg802
I0
sg17
I2591
sg803
I0
sg804
I0
sbsg12
S'1.44'
p3398
sg18
S'D:\\Projects\\TXV_DRIVER\\txv_Bridge'
p3399
sba(i__main__
DirectoryToProcess
p3400
(dp3401
g8
S'1'
p3402
sg10
S'txv_california'
p3403
sg796
g3048
sg14
(i__main__
LineCounts
p3404
(dp3405
g799
I0
sg800
I0
sg801
I0
sg802
I0
sg17
I855
sg803
I0
sg804
I0
sbsg12
S'1.45'
p3406
sg18
S'D:\\Projects\\TXV_DRIVER\\txv_california'
p3407
sba(i__main__
DirectoryToProcess
p3408
(dp3409
g8
S'1'
p3410
sg10
S'txv_wavetronix'
p3411
sg796
g3048
sg14
(i__main__
LineCounts
p3412
(dp3413
g799
I0
sg800
I0
sg801
I0
sg802
I0
sg17
I9051
sg803
I0
sg804
I0
sbsg12
S'1.46'
p3414
sg18
S'D:\\Projects\\TXV_DRIVER\\txv_wavetronix'
p3415
sba(i__main__
DirectoryToProcess
p3416
(dp3417
g8
S'-1'
p3418
sg10
S'TXV_PLATFORM'
p3419
sg796
Nsg14
(i__main__
LineCounts
p3420
(dp3421
g799
I0
sg800
I0
sg801
I0
sg802
I0
sg17
I775399
sg803
I0
sg804
I0
sbsg12
S'2'
p3422
sg18
S'D:\\Projects\\TXV_PLATFORM\\trunk'
p3423
sba(i__main__
DirectoryToProcess
p3424
(dp3425
g8
S'2'
p3426
sg10
S'Alarm_Management'
p3427
sg796
g3416
sg14
(i__main__
LineCounts
p3428
(dp3429
g799
I0
sg800
I0
sg801
I0
sg802
I0
sg17
I19248
sg803
I0
sg804
I0
sbsg12
S'2.1'
p3430
sg18
S'D:\\Projects\\TXV_PLATFORM\\trunk\\Alarm Management'
p3431
sba(i__main__
DirectoryToProcess
p3432
(dp3433
g8
S'2'
p3434
sg10
S'AVL'
p3435
sg796
g3416
sg14
(i__main__
LineCounts
p3436
(dp3437
g799
I0
sg800
I0
sg801
I0
sg802
I0
sg17
I29178
sg803
I0
sg804
I0
sbsg12
S'2.2'
p3438
sg18
S'D:\\Projects\\TXV_PLATFORM\\trunk\\AVL'
p3439
sba(i__main__
DirectoryToProcess
p3440
(dp3441
g8
S'2'
p3442
sg10
S'Base'
p3443
sg796
g3416
sg14
(i__main__
LineCounts
p3444
(dp3445
g799
I0
sg800
I0
sg801
I0
sg802
I0
sg17
I52179
sg803
I0
sg804
I0
sbsg12
S'2.3'
p3446
sg18
S'D:\\Projects\\TXV_PLATFORM\\trunk\\Base'
p3447
sba(i__main__
DirectoryToProcess
p3448
(dp3449
g8
S'2'
p3450
sg10
S'Common'
p3451
sg796
g3416
sg14
(i__main__
LineCounts
p3452
(dp3453
g799
I0
sg800
I0
sg801
I0
sg802
I0
sg17
I73290
sg803
I0
sg804
I0
sbsg12
S'2.4'
p3454
sg18
S'D:\\Projects\\TXV_PLATFORM\\trunk\\Common'
p3455
sba(i__main__
DirectoryToProcess
p3456
(dp3457
g8
S'2'
p3458
sg10
S'Designer'
p3459
sg796
g3416
sg14
(i__main__
LineCounts
p3460
(dp3461
g799
I0
sg800
I0
sg801
I0
sg802
I0
sg17
I106393
sg803
I0
sg804
I0
sbsg12
S'2.5'
p3462
sg18
S'D:\\Projects\\TXV_PLATFORM\\trunk\\Designer'
p3463
sba(i__main__
DirectoryToProcess
p3464
(dp3465
g8
S'2'
p3466
sg10
S'Device_Library'
p3467
sg796
g3416
sg14
(i__main__
LineCounts
p3468
(dp3469
g799
I0
sg800
I0
sg801
I0
sg802
I0
sg17
I98986
sg803
I0
sg804
I0
sbsg12
S'2.6'
p3470
sg18
S'D:\\Projects\\TXV_PLATFORM\\trunk\\Device Library'
p3471
sba(i__main__
DirectoryToProcess
p3472
(dp3473
g8
S'2'
p3474
sg10
S'Device_Simulator'
p3475
sg796
g3416
sg14
(i__main__
LineCounts
p3476
(dp3477
g799
I0
sg800
I0
sg801
I0
sg802
I0
sg17
I3077
sg803
I0
sg804
I0
sbsg12
S'2.7'
p3478
sg18
S'D:\\Projects\\TXV_PLATFORM\\trunk\\Device Simulator'
p3479
sba(i__main__
DirectoryToProcess
p3480
(dp3481
g8
S'2'
p3482
sg10
S'GUI'
p3483
sg796
g3416
sg14
(i__main__
LineCounts
p3484
(dp3485
g799
I0
sg800
I0
sg801
I0
sg802
I0
sg17
I256084
sg803
I0
sg804
I0
sbsg12
S'2.8'
p3486
sg18
S'D:\\Projects\\TXV_PLATFORM\\trunk\\GUI'
p3487
sba(i__main__
DirectoryToProcess
p3488
(dp3489
g8
S'2'
p3490
sg10
S'IM'
p3491
sg796
g3416
sg14
(i__main__
LineCounts
p3492
(dp3493
g799
I0
sg800
I0
sg801
I0
sg802
I0
sg17
I3112
sg803
I0
sg804
I0
sbsg12
S'2.9'
p3494
sg18
S'D:\\Projects\\TXV_PLATFORM\\trunk\\IM'
p3495
sba(i__main__
DirectoryToProcess
p3496
(dp3497
g8
S'2'
p3498
sg10
S'LED'
p3499
sg796
g3416
sg14
(i__main__
LineCounts
p3500
(dp3501
g799
I0
sg800
I0
sg801
I0
sg802
I0
sg17
I8975
sg803
I0
sg804
I0
sbsg12
S'2.10'
p3502
sg18
S'D:\\Projects\\TXV_PLATFORM\\trunk\\LED'
p3503
sba(i__main__
DirectoryToProcess
p3504
(dp3505
g8
S'2'
p3506
sg10
S'Parking'
p3507
sg796
g3416
sg14
(i__main__
LineCounts
p3508
(dp3509
g799
I0
sg800
I0
sg801
I0
sg802
I0
sg17
I8420
sg803
I0
sg804
I0
sbsg12
S'2.11'
p3510
sg18
S'D:\\Projects\\TXV_PLATFORM\\trunk\\Parking'
p3511
sba(i__main__
DirectoryToProcess
p3512
(dp3513
g8
S'2'
p3514
sg10
S'PTM'
p3515
sg796
g3416
sg14
(i__main__
LineCounts
p3516
(dp3517
g799
I0
sg800
I0
sg801
I0
sg802
I0
sg17
I6904
sg803
I0
sg804
I0
sbsg12
S'2.12'
p3518
sg18
S'D:\\Projects\\TXV_PLATFORM\\trunk\\PTM'
p3519
sba(i__main__
DirectoryToProcess
p3520
(dp3521
g8
S'2'
p3522
sg10
S'RWIS'
p3523
sg796
g3416
sg14
(i__main__
LineCounts
p3524
(dp3525
g799
I0
sg800
I0
sg801
I0
sg802
I0
sg17
I3875
sg803
I0
sg804
I0
sbsg12
S'2.13'
p3526
sg18
S'D:\\Projects\\TXV_PLATFORM\\trunk\\RWIS'
p3527
sba(i__main__
DirectoryToProcess
p3528
(dp3529
g8
S'2'
p3530
sg10
S'SCATS'
p3531
sg796
g3416
sg14
(i__main__
LineCounts
p3532
(dp3533
g799
I0
sg800
I0
sg801
I0
sg802
I0
sg17
I19512
sg803
I0
sg804
I0
sbsg12
S'2.14'
p3534
sg18
S'D:\\Projects\\TXV_PLATFORM\\trunk\\SCATS'
p3535
sba(i__main__
DirectoryToProcess
p3536
(dp3537
g8
S'2'
p3538
sg10
S'TTP'
p3539
sg796
g3416
sg14
(i__main__
LineCounts
p3540
(dp3541
g799
I0
sg800
I0
sg801
I0
sg802
I0
sg17
I3351
sg803
I0
sg804
I0
sbsg12
S'2.15'
p3542
sg18
S'D:\\Projects\\TXV_PLATFORM\\trunk\\TTP'
p3543
sba(i__main__
DirectoryToProcess
p3544
(dp3545
g8
S'2'
p3546
sg10
S'TVIS'
p3547
sg796
g3416
sg14
(i__main__
LineCounts
p3548
(dp3549
g799
I0
sg800
I0
sg801
I0
sg802
I0
sg17
I82815
sg803
I0
sg804
I0
sbsg12
S'2.16'
p3550
sg18
S'D:\\Projects\\TXV_PLATFORM\\trunk\\TVIS'
p3551
sba(i__main__
DirectoryToProcess
p3552
(dp3553
g8
S'-1'
p3554
sg10
S'TXV_CLIENT'
p3555
sg796
Nsg14
(i__main__
LineCounts
p3556
(dp3557
g799
I0
sg800
I0
sg801
I0
sg802
I0
sg17
I506075
sg803
I0
sg804
I0
sbsg12
S'3'
p3558
sg18
S'D:\\Projects\\TXV_CLIENT'
p3559
sba(i__main__
DirectoryToProcess
p3560
(dp3561
g8
S'3'
p3562
sg10
S'AutomationServer'
p3563
sg796
g3552
sg14
(i__main__
LineCounts
p3564
(dp3565
g799
I0
sg800
I0
sg801
I0
sg802
I0
sg17
I11120
sg803
I0
sg804
I0
sbsg12
S'3.1'
p3566
sg18
S'D:\\Projects\\TXV_CLIENT\\AutomationServer'
p3567
sba(i__main__
DirectoryToProcess
p3568
(dp3569
g8
S'3'
p3570
sg10
S'DataIntegrity'
p3571
sg796
g3552
sg14
(i__main__
LineCounts
p3572
(dp3573
g799
I0
sg800
I0
sg801
I0
sg802
I0
sg17
I615
sg803
I0
sg804
I0
sbsg12
S'3.2'
p3574
sg18
S'D:\\Projects\\TXV_CLIENT\\DataIntegrity'
p3575
sba(i__main__
DirectoryToProcess
p3576
(dp3577
g8
S'3'
p3578
sg10
S'NTCIP_C2C'
p3579
sg796
g3552
sg14
(i__main__
LineCounts
p3580
(dp3581
g799
I0
sg800
I0
sg801
I0
sg802
I0
sg17
I64884
sg803
I0
sg804
I0
sbsg12
S'3.3'
p3582
sg18
S'D:\\Projects\\TXV_CLIENT\\NTCIP_C2C'
p3583
sba(i__main__
DirectoryToProcess
p3584
(dp3585
g8
S'3'
p3586
sg10
S'NTCIP_C2F'
p3587
sg796
g3552
sg14
(i__main__
LineCounts
p3588
(dp3589
g799
I0
sg800
I0
sg801
I0
sg802
I0
sg17
I62566
sg803
I0
sg804
I0
sbsg12
S'3.4'
p3590
sg18
S'D:\\Projects\\TXV_CLIENT\\NTCIP_C2F'
p3591
sba(i__main__
DirectoryToProcess
p3592
(dp3593
g8
S'3'
p3594
sg10
S'OM_Interface'
p3595
sg796
g3552
sg14
(i__main__
LineCounts
p3596
(dp3597
g799
I0
sg800
I0
sg801
I0
sg802
I0
sg17
I3127
sg803
I0
sg804
I0
sbsg12
S'3.5'
p3598
sg18
S'D:\\Projects\\TXV_CLIENT\\OM_Interface'
p3599
sba(i__main__
DirectoryToProcess
p3600
(dp3601
g8
S'3'
p3602
sg10
S'ScenarioManager2'
p3603
sg796
g3552
sg14
(i__main__
LineCounts
p3604
(dp3605
g799
I0
sg800
I0
sg801
I0
sg802
I0
sg17
I14778
sg803
I0
sg804
I0
sbsg12
S'3.6'
p3606
sg18
S'D:\\Projects\\TXV_CLIENT\\ScenarioManager2'
p3607
sba(i__main__
DirectoryToProcess
p3608
(dp3609
g8
S'3'
p3610
sg10
S'scenario_manager'
p3611
sg796
g3552
sg14
(i__main__
LineCounts
p3612
(dp3613
g799
I0
sg800
I0
sg801
I0
sg802
I0
sg17
I7026
sg803
I0
sg804
I0
sbsg12
S'3.7'
p3614
sg18
S'D:\\Projects\\TXV_CLIENT\\scenario_manager'
p3615
sba(i__main__
DirectoryToProcess
p3616
(dp3617
g8
S'3'
p3618
sg10
S'SpeedEnforcement'
p3619
sg796
g3552
sg14
(i__main__
LineCounts
p3620
(dp3621
g799
I0
sg800
I0
sg801
I0
sg802
I0
sg17
I8436
sg803
I0
sg804
I0
sbsg12
S'3.8'
p3622
sg18
S'D:\\Projects\\TXV_CLIENT\\SpeedEnforcement\\trunk\\src'
p3623
sba(i__main__
DirectoryToProcess
p3624
(dp3625
g8
S'3'
p3626
sg10
S'test_app'
p3627
sg796
g3552
sg14
(i__main__
LineCounts
p3628
(dp3629
g799
I0
sg800
I0
sg801
I0
sg802
I0
sg17
I5788
sg803
I0
sg804
I0
sbsg12
S'3.9'
p3630
sg18
S'D:\\Projects\\TXV_CLIENT\\test_app'
p3631
sba(i__main__
DirectoryToProcess
p3632
(dp3633
g8
S'3'
p3634
sg10
S'tXv_PDA_App'
p3635
sg796
g3552
sg14
(i__main__
LineCounts
p3636
(dp3637
g799
I0
sg800
I0
sg801
I0
sg802
I0
sg17
I2304
sg803
I0
sg804
I0
sbsg12
S'3.10'
p3638
sg18
S'D:\\Projects\\TXV_CLIENT\\tXv PDA App'
p3639
sba(i__main__
DirectoryToProcess
p3640
(dp3641
g8
S'3'
p3642
sg10
S'TXV_DATEX2'
p3643
sg796
g3552
sg14
(i__main__
LineCounts
p3644
(dp3645
g799
I0
sg800
I0
sg801
I0
sg802
I0
sg17
I32753
sg803
I0
sg804
I0
sbsg12
S'3.11'
p3646
sg18
S'D:\\Projects\\TXV_CLIENT\\TXV_DATEX2'
p3647
sba(i__main__
DirectoryToProcess
p3648
(dp3649
g8
S'3'
p3650
sg10
S'TXV_GUI_1'
p3651
sg796
g3552
sg14
(i__main__
LineCounts
p3652
(dp3653
g799
I0
sg800
I0
sg801
I0
sg802
I0
sg17
I268797
sg803
I0
sg804
I0
sbsg12
S'3.12'
p3654
sg18
S'D:\\Projects\\TXV_CLIENT\\TXV_GUI'
p3655
sba(i__main__
DirectoryToProcess
p3656
(dp3657
g8
S'3'
p3658
sg10
S'TXV_SERVICE'
p3659
sg796
g3552
sg14
(i__main__
LineCounts
p3660
(dp3661
g799
I0
sg800
I0
sg801
I0
sg802
I0
sg17
I2315
sg803
I0
sg804
I0
sbsg12
S'3.13'
p3662
sg18
S'D:\\Projects\\TXV_CLIENT\\TXV_SERVICE'
p3663
sba(i__main__
DirectoryToProcess
p3664
(dp3665
g8
S'3'
p3666
sg10
S'TXV_TFP'
p3667
sg796
g3552
sg14
(i__main__
LineCounts
p3668
(dp3669
g799
I0
sg800
I0
sg801
I0
sg802
I0
sg17
I19562
sg803
I0
sg804
I0
sbsg12
S'3.14'
p3670
sg18
S'D:\\Projects\\TXV_CLIENT\\TXV_TFP'
p3671
sba(i__main__
DirectoryToProcess
p3672
(dp3673
g8
S'3'
p3674
sg10
S'TXV_TTPRo'
p3675
sg796
g3552
sg14
(i__main__
LineCounts
p3676
(dp3677
g799
I0
sg800
I0
sg801
I0
sg802
I0
sg17
I2004
sg803
I0
sg804
I0
sbsg12
S'3.15'
p3678
sg18
S'D:\\Projects\\TXV_CLIENT\\TXV_TTPRo'
p3679
sba(i__main__
DirectoryToProcess
p3680
(dp3681
g8
S'-1'
p3682
sg10
S'TXV_CORE'
p3683
sg796
Nsg14
(i__main__
LineCounts
p3684
(dp3685
g799
I0
sg800
I0
sg801
I0
sg802
I0
sg17
I115446
sg803
I0
sg804
I0
sbsg12
S'4'
p3686
sg18
S'D:\\Projects\\TXV_CORE'
p3687
sba(i__main__
DirectoryToProcess
p3688
(dp3689
g8
S'4'
p3690
sg10
S'C_LIBRARY'
p3691
sg796
g3680
sg14
(i__main__
LineCounts
p3692
(dp3693
g799
I0
sg800
I0
sg801
I0
sg802
I0
sg17
I27679
sg803
I0
sg804
I0
sbsg12
S'4.1'
p3694
sg18
S'D:\\Projects\\TXV_CORE\\C_LIBRARY'
p3695
sba(i__main__
DirectoryToProcess
p3696
(dp3697
g8
S'4'
p3698
sg10
S'C_LIBRARY-branch-datasequencing'
p3699
sg796
g3680
sg14
(i__main__
LineCounts
p3700
(dp3701
g799
I0
sg800
I0
sg801
I0
sg802
I0
sg17
I27738
sg803
I0
sg804
I0
sbsg12
S'4.2'
p3702
sg18
S'D:\\Projects\\TXV_CORE\\C_LIBRARY-branch-datasequencing'
p3703
sba(i__main__
DirectoryToProcess
p3704
(dp3705
g8
S'4'
p3706
sg10
S'historian'
p3707
sg796
g3680
sg14
(i__main__
LineCounts
p3708
(dp3709
g799
I0
sg800
I0
sg801
I0
sg802
I0
sg17
I6361
sg803
I0
sg804
I0
sbsg12
S'4.3'
p3710
sg18
S'D:\\Projects\\TXV_CORE\\historian\\trunk'
p3711
sba(i__main__
DirectoryToProcess
p3712
(dp3713
g8
S'4'
p3714
sg10
S'tXv_Jezgra'
p3715
sg796
g3680
sg14
(i__main__
LineCounts
p3716
(dp3717
g799
I0
sg800
I0
sg801
I0
sg802
I0
sg17
I41430
sg803
I0
sg804
I0
sbsg12
S'4.4'
p3718
sg18
S'D:\\Projects\\TXV_CORE\\tXv Jezgra'
p3719
sba(i__main__
DirectoryToProcess
p3720
(dp3721
g8
S'4'
p3722
sg10
S'txv_Filter_HR'
p3723
sg796
g3680
sg14
(i__main__
LineCounts
p3724
(dp3725
g799
I0
sg800
I0
sg801
I0
sg802
I0
sg17
I2645
sg803
I0
sg804
I0
sbsg12
S'4.5'
p3726
sg18
S'D:\\Projects\\TXV_CORE\\txv_Filter_HR'
p3727
sba(i__main__
DirectoryToProcess
p3728
(dp3729
g8
S'4'
p3730
sg10
S'UserRights'
p3731
sg796
g3680
sg14
(i__main__
LineCounts
p3732
(dp3733
g799
I0
sg800
I0
sg801
I0
sg802
I0
sg17
I9593
sg803
I0
sg804
I0
sbsg12
S'4.6'
p3734
sg18
S'D:\\Projects\\TXV_CORE\\UserRights'
p3735
sba(i__main__
DirectoryToProcess
p3736
(dp3737
g8
S'-1'
p3738
sg10
S'TXV_VIDEO'
p3739
sg796
Nsg14
(i__main__
LineCounts
p3740
(dp3741
g799
I0
sg800
I0
sg801
I0
sg802
I0
sg17
I107915
sg803
I0
sg804
I0
sbsg12
S'5'
p3742
sg18
S'D:\\Projects\\TXV_VIDEO'
p3743
sba(i__main__
DirectoryToProcess
p3744
(dp3745
g8
S'5'
p3746
sg10
S'drv_EyeConn'
p3747
sg796
g3736
sg14
(i__main__
LineCounts
p3748
(dp3749
g799
I0
sg800
I0
sg801
I0
sg802
I0
sg17
I4610
sg803
I0
sg804
I0
sbsg12
S'5.1'
p3750
sg18
S'D:\\Projects\\TXV_VIDEO\\drv_EyeConn'
p3751
sba(i__main__
DirectoryToProcess
p3752
(dp3753
g8
S'5'
p3754
sg10
S'drv_PTZ'
p3755
sg796
g3736
sg14
(i__main__
LineCounts
p3756
(dp3757
g799
I0
sg800
I0
sg801
I0
sg802
I0
sg17
I5651
sg803
I0
sg804
I0
sbsg12
S'5.2'
p3758
sg18
S'D:\\Projects\\TXV_VIDEO\\drv_PTZ'
p3759
sba(i__main__
DirectoryToProcess
p3760
(dp3761
g8
S'5'
p3762
sg10
S'drv_VideoTPS'
p3763
sg796
g3736
sg14
(i__main__
LineCounts
p3764
(dp3765
g799
I0
sg800
I0
sg801
I0
sg802
I0
sg17
I1829
sg803
I0
sg804
I0
sbsg12
S'5.3'
p3766
sg18
S'D:\\Projects\\TXV_VIDEO\\drv_VideoTPS'
p3767
sba(i__main__
DirectoryToProcess
p3768
(dp3769
g8
S'5'
p3770
sg10
S'KeyboardDriver'
p3771
sg796
g3736
sg14
(i__main__
LineCounts
p3772
(dp3773
g799
I0
sg800
I0
sg801
I0
sg802
I0
sg17
I9369
sg803
I0
sg804
I0
sbsg12
S'5.4'
p3774
sg18
S'D:\\Projects\\TXV_VIDEO\\KeyboardDriver'
p3775
sba(i__main__
DirectoryToProcess
p3776
(dp3777
g8
S'5'
p3778
sg10
S'NVR'
p3779
sg796
g3736
sg14
(i__main__
LineCounts
p3780
(dp3781
g799
I0
sg800
I0
sg801
I0
sg802
I0
sg17
I35246
sg803
I0
sg804
I0
sbsg12
S'5.5'
p3782
sg18
S'D:\\Projects\\TXV_VIDEO\\NVR'
p3783
sba(i__main__
DirectoryToProcess
p3784
(dp3785
g8
S'5'
p3786
sg10
S'NVRConnDLL'
p3787
sg796
g3736
sg14
(i__main__
LineCounts
p3788
(dp3789
g799
I0
sg800
I0
sg801
I0
sg802
I0
sg17
I2970
sg803
I0
sg804
I0
sbsg12
S'5.6'
p3790
sg18
S'D:\\Projects\\TXV_VIDEO\\NVRConnDLL'
p3791
sba(i__main__
DirectoryToProcess
p3792
(dp3793
g8
S'5'
p3794
sg10
S'NVRConsole'
p3795
sg796
g3736
sg14
(i__main__
LineCounts
p3796
(dp3797
g799
I0
sg800
I0
sg801
I0
sg802
I0
sg17
I19043
sg803
I0
sg804
I0
sbsg12
S'5.7'
p3798
sg18
S'D:\\Projects\\TXV_VIDEO\\NVRConsole'
p3799
sba(i__main__
DirectoryToProcess
p3800
(dp3801
g8
S'5'
p3802
sg10
S'VideoPlayer'
p3803
sg796
g3736
sg14
(i__main__
LineCounts
p3804
(dp3805
g799
I0
sg800
I0
sg801
I0
sg802
I0
sg17
I29197
sg803
I0
sg804
I0
sbsg12
S'5.8'
p3806
sg18
S'D:\\Projects\\TXV_VIDEO\\VideoPlayer'
p3807
sba(i__main__
DirectoryToProcess
p3808
(dp3809
g8
S'-1'
p3810
sg10
S'TXV_INTERNAL'
p3811
sg796
Nsg14
(i__main__
LineCounts
p3812
(dp3813
g799
I0
sg800
I0
sg801
I0
sg802
I0
sg17
I48689
sg803
I0
sg804
I0
sbsg12
S'6'
p3814
sg18
S'D:\\Projects\\TXV_INTERNAL'
p3815
sba(i__main__
DirectoryToProcess
p3816
(dp3817
g8
S'6'
p3818
sg10
S'Nemesis'
p3819
sg796
g3808
sg14
(i__main__
LineCounts
p3820
(dp3821
g799
I0
sg800
I0
sg801
I0
sg802
I0
sg17
I48689
sg803
I0
sg804
I0
sbsg12
S'6.1'
p3822
sg18
S'D:\\Projects\\TXV_INTERNAL\\Nemesis'
p3823
sbasg1
(S'\x07\xdb\x05\n\x00\n#\x00\xb3\xb0'
p3824
tp3825
Rp3826
(lp3827
(i__main__
DirectoryToProcess
p3828
(dp3829
g8
S'-1'
p3830
sg10
S'TXV_DRIVER'
p3831
sg12
S'1'
p3832
sg14
(i__main__
LineCounts
p3833
(dp3834
g17
I421514
sbsg18
S'D:\\Projects\\TXV_DRIVER'
p3835
sba(i__main__
DirectoryToProcess
p3836
(dp3837
g8
S'1'
p3838
sg10
S'Autoscope_driver'
p3839
sg12
S'1.1'
p3840
sg14
(i__main__
LineCounts
p3841
(dp3842
g17
I10830
sbsg18
S'D:\\Projects\\TXV_DRIVER\\drv_autoscope'
p3843
sba(i__main__
DirectoryToProcess
p3844
(dp3845
g8
S'1'
p3846
sg10
S'Autosense_driver'
p3847
sg12
S'1.2'
p3848
sg14
(i__main__
LineCounts
p3849
(dp3850
g17
I5339
sbsg18
S'D:\\Projects\\TXV_DRIVER\\drv_Autosense'
p3851
sba(i__main__
DirectoryToProcess
p3852
(dp3853
g8
S'1'
p3854
sg10
S'AVL_driver'
p3855
sg12
S'1.3'
p3856
sg14
(i__main__
LineCounts
p3857
(dp3858
g17
I1180
sbsg18
S'D:\\Projects\\TXV_DRIVER\\drv_AVL'
p3859
sba(i__main__
DirectoryToProcess
p3860
(dp3861
g8
S'1'
p3862
sg10
S'drv_bosch'
p3863
sg12
S'1.4'
p3864
sg14
(i__main__
LineCounts
p3865
(dp3866
g17
I4120
sbsg18
S'D:\\Projects\\TXV_DRIVER\\drv_bosch'
p3867
sba(i__main__
DirectoryToProcess
p3868
(dp3869
g8
S'1'
p3870
sg10
S'drv_dbsql'
p3871
sg12
S'1.5'
p3872
sg14
(i__main__
LineCounts
p3873
(dp3874
g17
I8771
sbsg18
S'D:\\Projects\\TXV_DRIVER\\drv_dbsql'
p3875
sba(i__main__
DirectoryToProcess
p3876
(dp3877
g8
S'1'
p3878
sg10
S'drv_dohvat'
p3879
sg12
S'1.6'
p3880
sg14
(i__main__
LineCounts
p3881
(dp3882
g17
I3395
sbsg18
S'D:\\Projects\\TXV_DRIVER\\drv_dohvat'
p3883
sba(i__main__
DirectoryToProcess
p3884
(dp3885
g8
S'1'
p3886
sg10
S'drv_enforcement'
p3887
sg12
S'1.7'
p3888
sg14
(i__main__
LineCounts
p3889
(dp3890
g17
I6568
sbsg18
S'D:\\Projects\\TXV_DRIVER\\drv_enforcement'
p3891
sba(i__main__
DirectoryToProcess
p3892
(dp3893
g8
S'1'
p3894
sg10
S'drv_eventmanager'
p3895
sg12
S'1.8'
p3896
sg14
(i__main__
LineCounts
p3897
(dp3898
g17
I6423
sbsg18
S'D:\\Projects\\TXV_DRIVER\\drv_eventmanager'
p3899
sba(i__main__
DirectoryToProcess
p3900
(dp3901
g8
S'1'
p3902
sg10
S'drv_FMS'
p3903
sg12
S'1.9'
p3904
sg14
(i__main__
LineCounts
p3905
(dp3906
g17
I4242
sbsg18
S'D:\\Projects\\TXV_DRIVER\\drv_FMS'
p3907
sba(i__main__
DirectoryToProcess
p3908
(dp3909
g8
S'1'
p3910
sg10
S'drv_GatsoGet'
p3911
sg12
S'1.10'
p3912
sg14
(i__main__
LineCounts
p3913
(dp3914
g17
I2034
sbsg18
S'D:\\Projects\\TXV_DRIVER\\drv_GatsoGet'
p3915
sba(i__main__
DirectoryToProcess
p3916
(dp3917
g8
S'1'
p3918
sg10
S'drv_GPRS'
p3919
sg12
S'1.11'
p3920
sg14
(i__main__
LineCounts
p3921
(dp3922
g17
I5711
sbsg18
S'D:\\Projects\\TXV_DRIVER\\drv_GPRS'
p3923
sba(i__main__
DirectoryToProcess
p3924
(dp3925
g8
S'1'
p3926
sg10
S'drv_gprs_tps'
p3927
sg12
S'1.12'
p3928
sg14
(i__main__
LineCounts
p3929
(dp3930
g17
I6285
sbsg18
S'D:\\Projects\\TXV_DRIVER\\drv_gprs_tps'
p3931
sba(i__main__
DirectoryToProcess
p3932
(dp3933
g8
S'1'
p3934
sg10
S'drv_IncidentManagement'
p3935
sg12
S'1.13'
p3936
sg14
(i__main__
LineCounts
p3937
(dp3938
g17
I379
sbsg18
S'D:\\Projects\\TXV_DRIVER\\drv_IncidentManagement'
p3939
sba(i__main__
DirectoryToProcess
p3940
(dp3941
g8
S'1'
p3942
sg10
S'drv_lpr'
p3943
sg12
S'1.14'
p3944
sg14
(i__main__
LineCounts
p3945
(dp3946
g17
I1412
sbsg18
S'D:\\Projects\\TXV_DRIVER\\drv_lpr'
p3947
sba(i__main__
DirectoryToProcess
p3948
(dp3949
g8
S'1'
p3950
sg10
S'drv_lpr_sim'
p3951
sg12
S'1.15'
p3952
sg14
(i__main__
LineCounts
p3953
(dp3954
g17
I1276
sbsg18
S'D:\\Projects\\TXV_DRIVER\\drv_lpr_sim'
p3955
sba(i__main__
DirectoryToProcess
p3956
(dp3957
g8
S'1'
p3958
sg10
S'drv_modbus'
p3959
sg12
S'1.16'
p3960
sg14
(i__main__
LineCounts
p3961
(dp3962
g17
I16175
sbsg18
S'D:\\Projects\\TXV_DRIVER\\drv_modbus'
p3963
sba(i__main__
DirectoryToProcess
p3964
(dp3965
g8
S'1'
p3966
sg10
S'drv_MQSimulator'
p3967
sg12
S'1.17'
p3968
sg14
(i__main__
LineCounts
p3969
(dp3970
g17
I908
sbsg18
S'D:\\Projects\\TXV_DRIVER\\drv_MQSimulator'
p3971
sba(i__main__
DirectoryToProcess
p3972
(dp3973
g8
S'1'
p3974
sg10
S'drv_msg_lib'
p3975
sg12
S'1.18'
p3976
sg14
(i__main__
LineCounts
p3977
(dp3978
g17
I5143
sbsg18
S'D:\\Projects\\TXV_DRIVER\\drv_msg_lib'
p3979
sba(i__main__
DirectoryToProcess
p3980
(dp3981
g8
S'1'
p3982
sg10
S'drv_opc'
p3983
sg12
S'1.20'
p3984
sg14
(i__main__
LineCounts
p3985
(dp3986
g17
I7526
sbsg18
S'D:\\Projects\\TXV_DRIVER\\drv_opc'
p3987
sba(i__main__
DirectoryToProcess
p3988
(dp3989
g8
S'1'
p3990
sg10
S'drv_Parking'
p3991
sg12
S'1.21'
p3992
sg14
(i__main__
LineCounts
p3993
(dp3994
g17
I1920
sbsg18
S'D:\\Projects\\TXV_DRIVER\\drv_Parking'
p3995
sba(i__main__
DirectoryToProcess
p3996
(dp3997
g8
S'1'
p3998
sg10
S'drv_PDA'
p3999
sg12
S'1.22'
p4000
sg14
(i__main__
LineCounts
p4001
(dp4002
g17
I4841
sbsg18
S'D:\\Projects\\TXV_DRIVER\\drv_PDA'
p4003
sba(i__main__
DirectoryToProcess
p4004
(dp4005
g8
S'1'
p4006
sg10
S'drv_prom'
p4007
sg12
S'1.23'
p4008
sg14
(i__main__
LineCounts
p4009
(dp4010
g17
I15878
sbsg18
S'D:\\Projects\\TXV_DRIVER\\drv_prom'
p4011
sba(i__main__
DirectoryToProcess
p4012
(dp4013
g8
S'1'
p4014
sg10
S'drv_prom_P'
p4015
sg12
S'1.24'
p4016
sg14
(i__main__
LineCounts
p4017
(dp4018
g17
I47234
sbsg18
S'D:\\Projects\\TXV_DRIVER\\drv_prom_P'
p4019
sba(i__main__
DirectoryToProcess
p4020
(dp4021
g8
S'1'
p4022
sg10
S'drv_PTM'
p4023
sg12
S'1.25'
p4024
sg14
(i__main__
LineCounts
p4025
(dp4026
g17
I2332
sbsg18
S'D:\\Projects\\TXV_DRIVER\\drv_PTM'
p4027
sba(i__main__
DirectoryToProcess
p4028
(dp4029
g8
S'1'
p4030
sg10
S'drv_Quercus'
p4031
sg12
S'1.26'
p4032
sg14
(i__main__
LineCounts
p4033
(dp4034
g17
I8460
sbsg18
S'D:\\Projects\\TXV_DRIVER\\drv_Quercus'
p4035
sba(i__main__
DirectoryToProcess
p4036
(dp4037
g8
S'1'
p4038
sg10
S'drv_Raktel'
p4039
sg12
S'1.27'
p4040
sg14
(i__main__
LineCounts
p4041
(dp4042
g17
I29193
sbsg18
S'D:\\Projects\\TXV_DRIVER\\drv_Raktel'
p4043
sba(i__main__
DirectoryToProcess
p4044
(dp4045
g8
S'1'
p4046
sg10
S'drv_Raktel_Simulator'
p4047
sg12
S'1.28'
p4048
sg14
(i__main__
LineCounts
p4049
(dp4050
g17
I6472
sbsg18
S'D:\\Projects\\TXV_DRIVER\\drv_Raktel_Simulator'
p4051
sba(i__main__
DirectoryToProcess
p4052
(dp4053
g8
S'1'
p4054
sg10
S'drv_Repository'
p4055
sg12
S'1.29'
p4056
sg14
(i__main__
LineCounts
p4057
(dp4058
g17
I3047
sbsg18
S'D:\\Projects\\TXV_DRIVER\\drv_Repository'
p4059
sba(i__main__
DirectoryToProcess
p4060
(dp4061
g8
S'1'
p4062
sg10
S'drv_SCATS'
p4063
sg12
S'1.30'
p4064
sg14
(i__main__
LineCounts
p4065
(dp4066
g17
I6631
sbsg18
S'D:\\Projects\\TXV_DRIVER\\drv_SCATS'
p4067
sba(i__main__
DirectoryToProcess
p4068
(dp4069
g8
S'1'
p4070
sg10
S'drv_sepura'
p4071
sg12
S'1.31'
p4072
sg14
(i__main__
LineCounts
p4073
(dp4074
g17
I3393
sbsg18
S'D:\\Projects\\TXV_DRIVER\\drv_sepura'
p4075
sba(i__main__
DirectoryToProcess
p4076
(dp4077
g8
S'1'
p4078
sg10
S'drv_SipPhone'
p4079
sg12
S'1.32'
p4080
sg14
(i__main__
LineCounts
p4081
(dp4082
g17
I4070
sbsg18
S'D:\\Projects\\TXV_DRIVER\\drv_SipPhone'
p4083
sba(i__main__
DirectoryToProcess
p4084
(dp4085
g8
S'1'
p4086
sg10
S'drv_snmp'
p4087
sg12
S'1.33'
p4088
sg14
(i__main__
LineCounts
p4089
(dp4090
g17
I3669
sbsg18
S'D:\\Projects\\TXV_DRIVER\\drv_snmp'
p4091
sba(i__main__
DirectoryToProcess
p4092
(dp4093
g8
S'1'
p4094
sg10
S'drv_tps'
p4095
sg12
S'1.34'
p4096
sg14
(i__main__
LineCounts
p4097
(dp4098
g17
I34380
sbsg18
S'D:\\Projects\\TXV_DRIVER\\drv_tps\\trunk'
p4099
sba(i__main__
DirectoryToProcess
p4100
(dp4101
g8
S'1'
p4102
sg10
S'drv_Traficon'
p4103
sg12
S'1.35'
p4104
sg14
(i__main__
LineCounts
p4105
(dp4106
g17
I2139
sbsg18
S'D:\\Projects\\TXV_DRIVER\\drv_Traficon'
p4107
sba(i__main__
DirectoryToProcess
p4108
(dp4109
g8
S'1'
p4110
sg10
S'drv_VBA'
p4111
sg12
S'1.36'
p4112
sg14
(i__main__
LineCounts
p4113
(dp4114
g17
I4121
sbsg18
S'D:\\Projects\\TXV_DRIVER\\drv_VBA'
p4115
sba(i__main__
DirectoryToProcess
p4116
(dp4117
g8
S'1'
p4118
sg10
S'drv_Vidos'
p4119
sg12
S'1.37'
p4120
sg14
(i__main__
LineCounts
p4121
(dp4122
g17
I309
sbsg18
S'D:\\Projects\\TXV_DRIVER\\drv_Vidos'
p4123
sba(i__main__
DirectoryToProcess
p4124
(dp4125
g8
S'1'
p4126
sg10
S'drv_vmatrix'
p4127
sg12
S'1.38'
p4128
sg14
(i__main__
LineCounts
p4129
(dp4130
g17
I3890
sbsg18
S'D:\\Projects\\TXV_DRIVER\\drv_vmatrix'
p4131
sba(i__main__
DirectoryToProcess
p4132
(dp4133
g8
S'1'
p4134
sg10
S'drv_voip_pbx'
p4135
sg12
S'1.39'
p4136
sg14
(i__main__
LineCounts
p4137
(dp4138
g17
I55102
sbsg18
S'D:\\Projects\\TXV_DRIVER\\drv_voip_pbx'
p4139
sba(i__main__
DirectoryToProcess
p4140
(dp4141
g8
S'1'
p4142
sg10
S'drv_voip_tps'
p4143
sg12
S'1.40'
p4144
sg14
(i__main__
LineCounts
p4145
(dp4146
g17
I7429
sbsg18
S'D:\\Projects\\TXV_DRIVER\\drv_voip_tps'
p4147
sba(i__main__
DirectoryToProcess
p4148
(dp4149
g8
S'1'
p4150
sg10
S'drv_Win32Sys'
p4151
sg12
S'1.41'
p4152
sg14
(i__main__
LineCounts
p4153
(dp4154
g17
I1694
sbsg18
S'D:\\Projects\\TXV_DRIVER\\drv_Win32Sys'
p4155
sba(i__main__
DirectoryToProcess
p4156
(dp4157
g8
S'1'
p4158
sg10
S'mTPC'
p4159
sg12
S'1.42'
p4160
sg14
(i__main__
LineCounts
p4161
(dp4162
g17
I52790
sbsg18
S'D:\\Projects\\TXV_DRIVER\\mTPC\\trunk'
p4163
sba(i__main__
DirectoryToProcess
p4164
(dp4165
g8
S'1'
p4166
sg10
S'txv_auto_rad'
p4167
sg12
S'1.43'
p4168
sg14
(i__main__
LineCounts
p4169
(dp4170
g17
I12306
sbsg18
S'D:\\Projects\\TXV_DRIVER\\txv_auto_rad'
p4171
sba(i__main__
DirectoryToProcess
p4172
(dp4173
g8
S'1'
p4174
sg10
S'txv_Bridge'
p4175
sg12
S'1.44'
p4176
sg14
(i__main__
LineCounts
p4177
(dp4178
g17
I2591
sbsg18
S'D:\\Projects\\TXV_DRIVER\\txv_Bridge'
p4179
sba(i__main__
DirectoryToProcess
p4180
(dp4181
g8
S'1'
p4182
sg10
S'txv_california'
p4183
sg12
S'1.45'
p4184
sg14
(i__main__
LineCounts
p4185
(dp4186
g17
I855
sbsg18
S'D:\\Projects\\TXV_DRIVER\\txv_california'
p4187
sba(i__main__
DirectoryToProcess
p4188
(dp4189
g8
S'1'
p4190
sg10
S'txv_wavetronix'
p4191
sg12
S'1.46'
p4192
sg14
(i__main__
LineCounts
p4193
(dp4194
g17
I9051
sbsg18
S'D:\\Projects\\TXV_DRIVER\\txv_wavetronix'
p4195
sba(i__main__
DirectoryToProcess
p4196
(dp4197
g8
S'-1'
p4198
sg10
S'TXV_PLATFORM'
p4199
sg12
S'2'
p4200
sg14
(i__main__
LineCounts
p4201
(dp4202
g17
I747838
sbsg18
S'D:\\Projects\\TXV_PLATFORM\\trunk'
p4203
sba(i__main__
DirectoryToProcess
p4204
(dp4205
g8
S'2'
p4206
sg10
S'Alarm_Management'
p4207
sg12
S'2.1'
p4208
sg14
(i__main__
LineCounts
p4209
(dp4210
g17
I19200
sbsg18
S'D:\\Projects\\TXV_PLATFORM\\trunk\\Alarm Management'
p4211
sba(i__main__
DirectoryToProcess
p4212
(dp4213
g8
S'2'
p4214
sg10
S'AVL'
p4215
sg12
S'2.2'
p4216
sg14
(i__main__
LineCounts
p4217
(dp4218
g17
I29174
sbsg18
S'D:\\Projects\\TXV_PLATFORM\\trunk\\AVL'
p4219
sba(i__main__
DirectoryToProcess
p4220
(dp4221
g8
S'2'
p4222
sg10
S'Base'
p4223
sg12
S'2.3'
p4224
sg14
(i__main__
LineCounts
p4225
(dp4226
g17
I51470
sbsg18
S'D:\\Projects\\TXV_PLATFORM\\trunk\\Base'
p4227
sba(i__main__
DirectoryToProcess
p4228
(dp4229
g8
S'2'
p4230
sg10
S'Common'
p4231
sg12
S'2.4'
p4232
sg14
(i__main__
LineCounts
p4233
(dp4234
g17
I71454
sbsg18
S'D:\\Projects\\TXV_PLATFORM\\trunk\\Common'
p4235
sba(i__main__
DirectoryToProcess
p4236
(dp4237
g8
S'2'
p4238
sg10
S'Designer'
p4239
sg12
S'2.5'
p4240
sg14
(i__main__
LineCounts
p4241
(dp4242
g17
I105704
sbsg18
S'D:\\Projects\\TXV_PLATFORM\\trunk\\Designer'
p4243
sba(i__main__
DirectoryToProcess
p4244
(dp4245
g8
S'2'
p4246
sg10
S'Device_Library'
p4247
sg12
S'2.6'
p4248
sg14
(i__main__
LineCounts
p4249
(dp4250
g17
I98806
sbsg18
S'D:\\Projects\\TXV_PLATFORM\\trunk\\Device Library'
p4251
sba(i__main__
DirectoryToProcess
p4252
(dp4253
g8
S'2'
p4254
sg10
S'Device_Simulator'
p4255
sg12
S'2.7'
p4256
sg14
(i__main__
LineCounts
p4257
(dp4258
g17
I3077
sbsg18
S'D:\\Projects\\TXV_PLATFORM\\trunk\\Device Simulator'
p4259
sba(i__main__
DirectoryToProcess
p4260
(dp4261
g8
S'2'
p4262
sg10
S'GUI'
p4263
sg12
S'2.8'
p4264
sg14
(i__main__
LineCounts
p4265
(dp4266
g17
I243696
sbsg18
S'D:\\Projects\\TXV_PLATFORM\\trunk\\GUI'
p4267
sba(i__main__
DirectoryToProcess
p4268
(dp4269
g8
S'2'
p4270
sg10
S'IM'
p4271
sg12
S'2.9'
p4272
sg14
(i__main__
LineCounts
p4273
(dp4274
g17
I2460
sbsg18
S'D:\\Projects\\TXV_PLATFORM\\trunk\\IM'
p4275
sba(i__main__
DirectoryToProcess
p4276
(dp4277
g8
S'2'
p4278
sg10
S'LED'
p4279
sg12
S'2.10'
p4280
sg14
(i__main__
LineCounts
p4281
(dp4282
g17
I8975
sbsg18
S'D:\\Projects\\TXV_PLATFORM\\trunk\\LED'
p4283
sba(i__main__
DirectoryToProcess
p4284
(dp4285
g8
S'2'
p4286
sg10
S'Parking'
p4287
sg12
S'2.11'
p4288
sg14
(i__main__
LineCounts
p4289
(dp4290
g17
I8420
sbsg18
S'D:\\Projects\\TXV_PLATFORM\\trunk\\Parking'
p4291
sba(i__main__
DirectoryToProcess
p4292
(dp4293
g8
S'2'
p4294
sg10
S'PTM'
p4295
sg12
S'2.12'
p4296
sg14
(i__main__
LineCounts
p4297
(dp4298
g17
I4218
sbsg18
S'D:\\Projects\\TXV_PLATFORM\\trunk\\PTM'
p4299
sba(i__main__
DirectoryToProcess
p4300
(dp4301
g8
S'2'
p4302
sg10
S'RWIS'
p4303
sg12
S'2.13'
p4304
sg14
(i__main__
LineCounts
p4305
(dp4306
g17
I3875
sbsg18
S'D:\\Projects\\TXV_PLATFORM\\trunk\\RWIS'
p4307
sba(i__main__
DirectoryToProcess
p4308
(dp4309
g8
S'2'
p4310
sg10
S'SCATS'
p4311
sg12
S'2.14'
p4312
sg14
(i__main__
LineCounts
p4313
(dp4314
g17
I17668
sbsg18
S'D:\\Projects\\TXV_PLATFORM\\trunk\\SCATS'
p4315
sba(i__main__
DirectoryToProcess
p4316
(dp4317
g8
S'2'
p4318
sg10
S'TTP'
p4319
sg12
S'2.15'
p4320
sg14
(i__main__
LineCounts
p4321
(dp4322
g17
I1356
sbsg18
S'D:\\Projects\\TXV_PLATFORM\\trunk\\TTP'
p4323
sba(i__main__
DirectoryToProcess
p4324
(dp4325
g8
S'2'
p4326
sg10
S'TVIS'
p4327
sg12
S'2.16'
p4328
sg14
(i__main__
LineCounts
p4329
(dp4330
g17
I78285
sbsg18
S'D:\\Projects\\TXV_PLATFORM\\trunk\\TVIS'
p4331
sba(i__main__
DirectoryToProcess
p4332
(dp4333
g8
S'-1'
p4334
sg10
S'TXV_CLIENT'
p4335
sg12
S'3'
p4336
sg14
(i__main__
LineCounts
p4337
(dp4338
g17
I505947
sbsg18
S'D:\\Projects\\TXV_CLIENT'
p4339
sba(i__main__
DirectoryToProcess
p4340
(dp4341
g8
S'3'
p4342
sg10
S'AutomationServer'
p4343
sg12
S'3.1'
p4344
sg14
(i__main__
LineCounts
p4345
(dp4346
g17
I11120
sbsg18
S'D:\\Projects\\TXV_CLIENT\\AutomationServer'
p4347
sba(i__main__
DirectoryToProcess
p4348
(dp4349
g8
S'3'
p4350
sg10
S'DataIntegrity'
p4351
sg12
S'3.2'
p4352
sg14
(i__main__
LineCounts
p4353
(dp4354
g17
I615
sbsg18
S'D:\\Projects\\TXV_CLIENT\\DataIntegrity'
p4355
sba(i__main__
DirectoryToProcess
p4356
(dp4357
g8
S'3'
p4358
sg10
S'NTCIP_C2C'
p4359
sg12
S'3.3'
p4360
sg14
(i__main__
LineCounts
p4361
(dp4362
g17
I64884
sbsg18
S'D:\\Projects\\TXV_CLIENT\\NTCIP_C2C'
p4363
sba(i__main__
DirectoryToProcess
p4364
(dp4365
g8
S'3'
p4366
sg10
S'NTCIP_C2F'
p4367
sg12
S'3.4'
p4368
sg14
(i__main__
LineCounts
p4369
(dp4370
g17
I62509
sbsg18
S'D:\\Projects\\TXV_CLIENT\\NTCIP_C2F'
p4371
sba(i__main__
DirectoryToProcess
p4372
(dp4373
g8
S'3'
p4374
sg10
S'OM_Interface'
p4375
sg12
S'3.5'
p4376
sg14
(i__main__
LineCounts
p4377
(dp4378
g17
I3127
sbsg18
S'D:\\Projects\\TXV_CLIENT\\OM_Interface'
p4379
sba(i__main__
DirectoryToProcess
p4380
(dp4381
g8
S'3'
p4382
sg10
S'ScenarioManager2'
p4383
sg12
S'3.6'
p4384
sg14
(i__main__
LineCounts
p4385
(dp4386
g17
I14778
sbsg18
S'D:\\Projects\\TXV_CLIENT\\ScenarioManager2'
p4387
sba(i__main__
DirectoryToProcess
p4388
(dp4389
g8
S'3'
p4390
sg10
S'scenario_manager'
p4391
sg12
S'3.7'
p4392
sg14
(i__main__
LineCounts
p4393
(dp4394
g17
I7026
sbsg18
S'D:\\Projects\\TXV_CLIENT\\scenario_manager'
p4395
sba(i__main__
DirectoryToProcess
p4396
(dp4397
g8
S'3'
p4398
sg10
S'SpeedEnforcement'
p4399
sg12
S'3.8'
p4400
sg14
(i__main__
LineCounts
p4401
(dp4402
g17
I8436
sbsg18
S'D:\\Projects\\TXV_CLIENT\\SpeedEnforcement\\trunk\\src'
p4403
sba(i__main__
DirectoryToProcess
p4404
(dp4405
g8
S'3'
p4406
sg10
S'test_app'
p4407
sg12
S'3.9'
p4408
sg14
(i__main__
LineCounts
p4409
(dp4410
g17
I5788
sbsg18
S'D:\\Projects\\TXV_CLIENT\\test_app'
p4411
sba(i__main__
DirectoryToProcess
p4412
(dp4413
g8
S'3'
p4414
sg10
S'tXv_PDA_App'
p4415
sg12
S'3.10'
p4416
sg14
(i__main__
LineCounts
p4417
(dp4418
g17
I2304
sbsg18
S'D:\\Projects\\TXV_CLIENT\\tXv PDA App'
p4419
sba(i__main__
DirectoryToProcess
p4420
(dp4421
g8
S'3'
p4422
sg10
S'TXV_DATEX2'
p4423
sg12
S'3.11'
p4424
sg14
(i__main__
LineCounts
p4425
(dp4426
g17
I32753
sbsg18
S'D:\\Projects\\TXV_CLIENT\\TXV_DATEX2'
p4427
sba(i__main__
DirectoryToProcess
p4428
(dp4429
g8
S'3'
p4430
sg10
S'TXV_GUI_1'
p4431
sg12
S'3.12'
p4432
sg14
(i__main__
LineCounts
p4433
(dp4434
g17
I268726
sbsg18
S'D:\\Projects\\TXV_CLIENT\\TXV_GUI'
p4435
sba(i__main__
DirectoryToProcess
p4436
(dp4437
g8
S'3'
p4438
sg10
S'TXV_SERVICE'
p4439
sg12
S'3.13'
p4440
sg14
(i__main__
LineCounts
p4441
(dp4442
g17
I2315
sbsg18
S'D:\\Projects\\TXV_CLIENT\\TXV_SERVICE'
p4443
sba(i__main__
DirectoryToProcess
p4444
(dp4445
g8
S'3'
p4446
sg10
S'TXV_TFP'
p4447
sg12
S'3.14'
p4448
sg14
(i__main__
LineCounts
p4449
(dp4450
g17
I19562
sbsg18
S'D:\\Projects\\TXV_CLIENT\\TXV_TFP'
p4451
sba(i__main__
DirectoryToProcess
p4452
(dp4453
g8
S'3'
p4454
sg10
S'TXV_TTPRo'
p4455
sg12
S'3.15'
p4456
sg14
(i__main__
LineCounts
p4457
(dp4458
g17
I2004
sbsg18
S'D:\\Projects\\TXV_CLIENT\\TXV_TTPRo'
p4459
sba(i__main__
DirectoryToProcess
p4460
(dp4461
g8
S'-1'
p4462
sg10
S'TXV_CORE'
p4463
sg12
S'4'
p4464
sg14
(i__main__
LineCounts
p4465
(dp4466
g17
I115202
sbsg18
S'D:\\Projects\\TXV_CORE'
p4467
sba(i__main__
DirectoryToProcess
p4468
(dp4469
g8
S'4'
p4470
sg10
S'C_LIBRARY'
p4471
sg12
S'4.1'
p4472
sg14
(i__main__
LineCounts
p4473
(dp4474
g17
I27679
sbsg18
S'D:\\Projects\\TXV_CORE\\C_LIBRARY'
p4475
sba(i__main__
DirectoryToProcess
p4476
(dp4477
g8
S'4'
p4478
sg10
S'C_LIBRARY-branch-datasequencing'
p4479
sg12
S'4.2'
p4480
sg14
(i__main__
LineCounts
p4481
(dp4482
g17
I27738
sbsg18
S'D:\\Projects\\TXV_CORE\\C_LIBRARY-branch-datasequencing'
p4483
sba(i__main__
DirectoryToProcess
p4484
(dp4485
g8
S'4'
p4486
sg10
S'historian'
p4487
sg12
S'4.3'
p4488
sg14
(i__main__
LineCounts
p4489
(dp4490
g17
I6117
sbsg18
S'D:\\Projects\\TXV_CORE\\historian\\trunk'
p4491
sba(i__main__
DirectoryToProcess
p4492
(dp4493
g8
S'4'
p4494
sg10
S'tXv_Jezgra'
p4495
sg12
S'4.4'
p4496
sg14
(i__main__
LineCounts
p4497
(dp4498
g17
I41430
sbsg18
S'D:\\Projects\\TXV_CORE\\tXv Jezgra'
p4499
sba(i__main__
DirectoryToProcess
p4500
(dp4501
g8
S'4'
p4502
sg10
S'txv_Filter_HR'
p4503
sg12
S'4.5'
p4504
sg14
(i__main__
LineCounts
p4505
(dp4506
g17
I2645
sbsg18
S'D:\\Projects\\TXV_CORE\\txv_Filter_HR'
p4507
sba(i__main__
DirectoryToProcess
p4508
(dp4509
g8
S'4'
p4510
sg10
S'UserRights'
p4511
sg12
S'4.6'
p4512
sg14
(i__main__
LineCounts
p4513
(dp4514
g17
I9593
sbsg18
S'D:\\Projects\\TXV_CORE\\UserRights'
p4515
sba(i__main__
DirectoryToProcess
p4516
(dp4517
g8
S'-1'
p4518
sg10
S'TXV_VIDEO'
p4519
sg12
S'5'
p4520
sg14
(i__main__
LineCounts
p4521
(dp4522
g17
I107913
sbsg18
S'D:\\Projects\\TXV_VIDEO'
p4523
sba(i__main__
DirectoryToProcess
p4524
(dp4525
g8
S'5'
p4526
sg10
S'drv_EyeConn'
p4527
sg12
S'5.1'
p4528
sg14
(i__main__
LineCounts
p4529
(dp4530
g17
I4610
sbsg18
S'D:\\Projects\\TXV_VIDEO\\drv_EyeConn'
p4531
sba(i__main__
DirectoryToProcess
p4532
(dp4533
g8
S'5'
p4534
sg10
S'drv_PTZ'
p4535
sg12
S'5.2'
p4536
sg14
(i__main__
LineCounts
p4537
(dp4538
g17
I5647
sbsg18
S'D:\\Projects\\TXV_VIDEO\\drv_PTZ'
p4539
sba(i__main__
DirectoryToProcess
p4540
(dp4541
g8
S'5'
p4542
sg10
S'drv_VideoTPS'
p4543
sg12
S'5.3'
p4544
sg14
(i__main__
LineCounts
p4545
(dp4546
g17
I1833
sbsg18
S'D:\\Projects\\TXV_VIDEO\\drv_VideoTPS'
p4547
sba(i__main__
DirectoryToProcess
p4548
(dp4549
g8
S'5'
p4550
sg10
S'KeyboardDriver'
p4551
sg12
S'5.4'
p4552
sg14
(i__main__
LineCounts
p4553
(dp4554
g17
I9369
sbsg18
S'D:\\Projects\\TXV_VIDEO\\KeyboardDriver'
p4555
sba(i__main__
DirectoryToProcess
p4556
(dp4557
g8
S'5'
p4558
sg10
S'NVR'
p4559
sg12
S'5.5'
p4560
sg14
(i__main__
LineCounts
p4561
(dp4562
g17
I35244
sbsg18
S'D:\\Projects\\TXV_VIDEO\\NVR'
p4563
sba(i__main__
DirectoryToProcess
p4564
(dp4565
g8
S'5'
p4566
sg10
S'NVRConnDLL'
p4567
sg12
S'5.6'
p4568
sg14
(i__main__
LineCounts
p4569
(dp4570
g17
I2970
sbsg18
S'D:\\Projects\\TXV_VIDEO\\NVRConnDLL'
p4571
sba(i__main__
DirectoryToProcess
p4572
(dp4573
g8
S'5'
p4574
sg10
S'NVRConsole'
p4575
sg12
S'5.7'
p4576
sg14
(i__main__
LineCounts
p4577
(dp4578
g17
I19043
sbsg18
S'D:\\Projects\\TXV_VIDEO\\NVRConsole'
p4579
sba(i__main__
DirectoryToProcess
p4580
(dp4581
g8
S'5'
p4582
sg10
S'VideoPlayer'
p4583
sg12
S'5.8'
p4584
sg14
(i__main__
LineCounts
p4585
(dp4586
g17
I29197
sbsg18
S'D:\\Projects\\TXV_VIDEO\\VideoPlayer'
p4587
sba(i__main__
DirectoryToProcess
p4588
(dp4589
g8
S'-1'
p4590
sg10
S'TXV_INTERNAL'
p4591
sg12
S'6'
p4592
sg14
(i__main__
LineCounts
p4593
(dp4594
g17
I46247
sbsg18
S'D:\\Projects\\TXV_INTERNAL'
p4595
sba(i__main__
DirectoryToProcess
p4596
(dp4597
g8
S'6'
p4598
sg10
S'Nemesis'
p4599
sg12
S'6.1'
p4600
sg14
(i__main__
LineCounts
p4601
(dp4602
g17
I46247
sbsg18
S'D:\\Projects\\TXV_INTERNAL\\Nemesis'
p4603
sbasg1
(S'\x07\xdb\x05\x13\n\x0b\x05\x06\x8f\xb0'
p4604
tp4605
Rp4606
(lp4607
(i__main__
DirectoryToProcess
p4608
(dp4609
g8
S'-1'
p4610
sg10
S'TXV_DRIVER'
p4611
sg796
Nsg14
(i__main__
LineCounts
p4612
(dp4613
g799
I0
sg800
I0
sg801
I0
sg802
I0
sg17
I423120
sg803
I0
sg804
I0
sbsg12
S'1'
p4614
sg18
S'D:\\Projects\\TXV_DRIVER'
p4615
sba(i__main__
DirectoryToProcess
p4616
(dp4617
g8
S'1'
p4618
sg10
S'Autoscope_driver'
p4619
sg796
g4608
sg14
(i__main__
LineCounts
p4620
(dp4621
g799
I0
sg800
I0
sg801
I0
sg802
I0
sg17
I10830
sg803
I0
sg804
I0
sbsg12
S'1.1'
p4622
sg18
S'D:\\Projects\\TXV_DRIVER\\drv_autoscope'
p4623
sba(i__main__
DirectoryToProcess
p4624
(dp4625
g8
S'1'
p4626
sg10
S'Autosense_driver'
p4627
sg796
g4608
sg14
(i__main__
LineCounts
p4628
(dp4629
g799
I0
sg800
I0
sg801
I0
sg802
I0
sg17
I5339
sg803
I0
sg804
I0
sbsg12
S'1.2'
p4630
sg18
S'D:\\Projects\\TXV_DRIVER\\drv_Autosense'
p4631
sba(i__main__
DirectoryToProcess
p4632
(dp4633
g8
S'1'
p4634
sg10
S'AVL_driver'
p4635
sg796
g4608
sg14
(i__main__
LineCounts
p4636
(dp4637
g799
I0
sg800
I0
sg801
I0
sg802
I0
sg17
I1180
sg803
I0
sg804
I0
sbsg12
S'1.3'
p4638
sg18
S'D:\\Projects\\TXV_DRIVER\\drv_AVL'
p4639
sba(i__main__
DirectoryToProcess
p4640
(dp4641
g8
S'1'
p4642
sg10
S'drv_bosch'
p4643
sg796
g4608
sg14
(i__main__
LineCounts
p4644
(dp4645
g799
I0
sg800
I0
sg801
I0
sg802
I0
sg17
I4120
sg803
I0
sg804
I0
sbsg12
S'1.4'
p4646
sg18
S'D:\\Projects\\TXV_DRIVER\\drv_bosch'
p4647
sba(i__main__
DirectoryToProcess
p4648
(dp4649
g8
S'1'
p4650
sg10
S'drv_dbsql'
p4651
sg796
g4608
sg14
(i__main__
LineCounts
p4652
(dp4653
g799
I0
sg800
I0
sg801
I0
sg802
I0
sg17
I8771
sg803
I0
sg804
I0
sbsg12
S'1.5'
p4654
sg18
S'D:\\Projects\\TXV_DRIVER\\drv_dbsql'
p4655
sba(i__main__
DirectoryToProcess
p4656
(dp4657
g8
S'1'
p4658
sg10
S'drv_dohvat'
p4659
sg796
g4608
sg14
(i__main__
LineCounts
p4660
(dp4661
g799
I0
sg800
I0
sg801
I0
sg802
I0
sg17
I3395
sg803
I0
sg804
I0
sbsg12
S'1.6'
p4662
sg18
S'D:\\Projects\\TXV_DRIVER\\drv_dohvat'
p4663
sba(i__main__
DirectoryToProcess
p4664
(dp4665
g8
S'1'
p4666
sg10
S'drv_enforcement'
p4667
sg796
g4608
sg14
(i__main__
LineCounts
p4668
(dp4669
g799
I0
sg800
I0
sg801
I0
sg802
I0
sg17
I6716
sg803
I0
sg804
I0
sbsg12
S'1.7'
p4670
sg18
S'D:\\Projects\\TXV_DRIVER\\drv_enforcement'
p4671
sba(i__main__
DirectoryToProcess
p4672
(dp4673
g8
S'1'
p4674
sg10
S'drv_eventmanager'
p4675
sg796
g4608
sg14
(i__main__
LineCounts
p4676
(dp4677
g799
I0
sg800
I0
sg801
I0
sg802
I0
sg17
I6945
sg803
I0
sg804
I0
sbsg12
S'1.8'
p4678
sg18
S'D:\\Projects\\TXV_DRIVER\\drv_eventmanager'
p4679
sba(i__main__
DirectoryToProcess
p4680
(dp4681
g8
S'1'
p4682
sg10
S'drv_FMS'
p4683
sg796
g4608
sg14
(i__main__
LineCounts
p4684
(dp4685
g799
I0
sg800
I0
sg801
I0
sg802
I0
sg17
I4242
sg803
I0
sg804
I0
sbsg12
S'1.9'
p4686
sg18
S'D:\\Projects\\TXV_DRIVER\\drv_FMS'
p4687
sba(i__main__
DirectoryToProcess
p4688
(dp4689
g8
S'1'
p4690
sg10
S'drv_GatsoGet'
p4691
sg796
g4608
sg14
(i__main__
LineCounts
p4692
(dp4693
g799
I0
sg800
I0
sg801
I0
sg802
I0
sg17
I2034
sg803
I0
sg804
I0
sbsg12
S'1.10'
p4694
sg18
S'D:\\Projects\\TXV_DRIVER\\drv_GatsoGet'
p4695
sba(i__main__
DirectoryToProcess
p4696
(dp4697
g8
S'1'
p4698
sg10
S'drv_GPRS'
p4699
sg796
g4608
sg14
(i__main__
LineCounts
p4700
(dp4701
g799
I0
sg800
I0
sg801
I0
sg802
I0
sg17
I5711
sg803
I0
sg804
I0
sbsg12
S'1.11'
p4702
sg18
S'D:\\Projects\\TXV_DRIVER\\drv_GPRS'
p4703
sba(i__main__
DirectoryToProcess
p4704
(dp4705
g8
S'1'
p4706
sg10
S'drv_gprs_tps'
p4707
sg796
g4608
sg14
(i__main__
LineCounts
p4708
(dp4709
g799
I0
sg800
I0
sg801
I0
sg802
I0
sg17
I6285
sg803
I0
sg804
I0
sbsg12
S'1.12'
p4710
sg18
S'D:\\Projects\\TXV_DRIVER\\drv_gprs_tps'
p4711
sba(i__main__
DirectoryToProcess
p4712
(dp4713
g8
S'1'
p4714
sg10
S'drv_IncidentManagement'
p4715
sg796
g4608
sg14
(i__main__
LineCounts
p4716
(dp4717
g799
I0
sg800
I0
sg801
I0
sg802
I0
sg17
I379
sg803
I0
sg804
I0
sbsg12
S'1.13'
p4718
sg18
S'D:\\Projects\\TXV_DRIVER\\drv_IncidentManagement'
p4719
sba(i__main__
DirectoryToProcess
p4720
(dp4721
g8
S'1'
p4722
sg10
S'drv_lpr'
p4723
sg796
g4608
sg14
(i__main__
LineCounts
p4724
(dp4725
g799
I0
sg800
I0
sg801
I0
sg802
I0
sg17
I1412
sg803
I0
sg804
I0
sbsg12
S'1.14'
p4726
sg18
S'D:\\Projects\\TXV_DRIVER\\drv_lpr'
p4727
sba(i__main__
DirectoryToProcess
p4728
(dp4729
g8
S'1'
p4730
sg10
S'drv_lpr_sim'
p4731
sg796
g4608
sg14
(i__main__
LineCounts
p4732
(dp4733
g799
I0
sg800
I0
sg801
I0
sg802
I0
sg17
I1276
sg803
I0
sg804
I0
sbsg12
S'1.15'
p4734
sg18
S'D:\\Projects\\TXV_DRIVER\\drv_lpr_sim'
p4735
sba(i__main__
DirectoryToProcess
p4736
(dp4737
g8
S'1'
p4738
sg10
S'drv_modbus'
p4739
sg796
g4608
sg14
(i__main__
LineCounts
p4740
(dp4741
g799
I0
sg800
I0
sg801
I0
sg802
I0
sg17
I16175
sg803
I0
sg804
I0
sbsg12
S'1.16'
p4742
sg18
S'D:\\Projects\\TXV_DRIVER\\drv_modbus'
p4743
sba(i__main__
DirectoryToProcess
p4744
(dp4745
g8
S'1'
p4746
sg10
S'drv_MQSimulator'
p4747
sg796
g4608
sg14
(i__main__
LineCounts
p4748
(dp4749
g799
I0
sg800
I0
sg801
I0
sg802
I0
sg17
I1190
sg803
I0
sg804
I0
sbsg12
S'1.17'
p4750
sg18
S'D:\\Projects\\TXV_DRIVER\\drv_MQSimulator'
p4751
sba(i__main__
DirectoryToProcess
p4752
(dp4753
g8
S'1'
p4754
sg10
S'drv_msg_lib'
p4755
sg796
g4608
sg14
(i__main__
LineCounts
p4756
(dp4757
g799
I0
sg800
I0
sg801
I0
sg802
I0
sg17
I5156
sg803
I0
sg804
I0
sbsg12
S'1.18'
p4758
sg18
S'D:\\Projects\\TXV_DRIVER\\drv_msg_lib'
p4759
sba(i__main__
DirectoryToProcess
p4760
(dp4761
g8
S'1'
p4762
sg10
S'drv_opc'
p4763
sg796
g4608
sg14
(i__main__
LineCounts
p4764
(dp4765
g799
I0
sg800
I0
sg801
I0
sg802
I0
sg17
I7526
sg803
I0
sg804
I0
sbsg12
S'1.20'
p4766
sg18
S'D:\\Projects\\TXV_DRIVER\\drv_opc'
p4767
sba(i__main__
DirectoryToProcess
p4768
(dp4769
g8
S'1'
p4770
sg10
S'drv_Parking'
p4771
sg796
g4608
sg14
(i__main__
LineCounts
p4772
(dp4773
g799
I0
sg800
I0
sg801
I0
sg802
I0
sg17
I1920
sg803
I0
sg804
I0
sbsg12
S'1.21'
p4774
sg18
S'D:\\Projects\\TXV_DRIVER\\drv_Parking'
p4775
sba(i__main__
DirectoryToProcess
p4776
(dp4777
g8
S'1'
p4778
sg10
S'drv_PDA'
p4779
sg796
g4608
sg14
(i__main__
LineCounts
p4780
(dp4781
g799
I0
sg800
I0
sg801
I0
sg802
I0
sg17
I4841
sg803
I0
sg804
I0
sbsg12
S'1.22'
p4782
sg18
S'D:\\Projects\\TXV_DRIVER\\drv_PDA'
p4783
sba(i__main__
DirectoryToProcess
p4784
(dp4785
g8
S'1'
p4786
sg10
S'drv_prom'
p4787
sg796
g4608
sg14
(i__main__
LineCounts
p4788
(dp4789
g799
I0
sg800
I0
sg801
I0
sg802
I0
sg17
I15878
sg803
I0
sg804
I0
sbsg12
S'1.23'
p4790
sg18
S'D:\\Projects\\TXV_DRIVER\\drv_prom'
p4791
sba(i__main__
DirectoryToProcess
p4792
(dp4793
g8
S'1'
p4794
sg10
S'drv_prom_P'
p4795
sg796
g4608
sg14
(i__main__
LineCounts
p4796
(dp4797
g799
I0
sg800
I0
sg801
I0
sg802
I0
sg17
I47234
sg803
I0
sg804
I0
sbsg12
S'1.24'
p4798
sg18
S'D:\\Projects\\TXV_DRIVER\\drv_prom_P'
p4799
sba(i__main__
DirectoryToProcess
p4800
(dp4801
g8
S'1'
p4802
sg10
S'drv_PTM'
p4803
sg796
g4608
sg14
(i__main__
LineCounts
p4804
(dp4805
g799
I0
sg800
I0
sg801
I0
sg802
I0
sg17
I2926
sg803
I0
sg804
I0
sbsg12
S'1.25'
p4806
sg18
S'D:\\Projects\\TXV_DRIVER\\drv_PTM'
p4807
sba(i__main__
DirectoryToProcess
p4808
(dp4809
g8
S'1'
p4810
sg10
S'drv_Quercus'
p4811
sg796
g4608
sg14
(i__main__
LineCounts
p4812
(dp4813
g799
I0
sg800
I0
sg801
I0
sg802
I0
sg17
I8460
sg803
I0
sg804
I0
sbsg12
S'1.26'
p4814
sg18
S'D:\\Projects\\TXV_DRIVER\\drv_Quercus'
p4815
sba(i__main__
DirectoryToProcess
p4816
(dp4817
g8
S'1'
p4818
sg10
S'drv_Raktel'
p4819
sg796
g4608
sg14
(i__main__
LineCounts
p4820
(dp4821
g799
I0
sg800
I0
sg801
I0
sg802
I0
sg17
I29198
sg803
I0
sg804
I0
sbsg12
S'1.27'
p4822
sg18
S'D:\\Projects\\TXV_DRIVER\\drv_Raktel'
p4823
sba(i__main__
DirectoryToProcess
p4824
(dp4825
g8
S'1'
p4826
sg10
S'drv_Raktel_Simulator'
p4827
sg796
g4608
sg14
(i__main__
LineCounts
p4828
(dp4829
g799
I0
sg800
I0
sg801
I0
sg802
I0
sg17
I6472
sg803
I0
sg804
I0
sbsg12
S'1.28'
p4830
sg18
S'D:\\Projects\\TXV_DRIVER\\drv_Raktel_Simulator'
p4831
sba(i__main__
DirectoryToProcess
p4832
(dp4833
g8
S'1'
p4834
sg10
S'drv_Repository'
p4835
sg796
g4608
sg14
(i__main__
LineCounts
p4836
(dp4837
g799
I0
sg800
I0
sg801
I0
sg802
I0
sg17
I3047
sg803
I0
sg804
I0
sbsg12
S'1.29'
p4838
sg18
S'D:\\Projects\\TXV_DRIVER\\drv_Repository'
p4839
sba(i__main__
DirectoryToProcess
p4840
(dp4841
g8
S'1'
p4842
sg10
S'drv_SCATS'
p4843
sg796
g4608
sg14
(i__main__
LineCounts
p4844
(dp4845
g799
I0
sg800
I0
sg801
I0
sg802
I0
sg17
I6631
sg803
I0
sg804
I0
sbsg12
S'1.30'
p4846
sg18
S'D:\\Projects\\TXV_DRIVER\\drv_SCATS'
p4847
sba(i__main__
DirectoryToProcess
p4848
(dp4849
g8
S'1'
p4850
sg10
S'drv_sepura'
p4851
sg796
g4608
sg14
(i__main__
LineCounts
p4852
(dp4853
g799
I0
sg800
I0
sg801
I0
sg802
I0
sg17
I3393
sg803
I0
sg804
I0
sbsg12
S'1.31'
p4854
sg18
S'D:\\Projects\\TXV_DRIVER\\drv_sepura'
p4855
sba(i__main__
DirectoryToProcess
p4856
(dp4857
g8
S'1'
p4858
sg10
S'drv_SipPhone'
p4859
sg796
g4608
sg14
(i__main__
LineCounts
p4860
(dp4861
g799
I0
sg800
I0
sg801
I0
sg802
I0
sg17
I4070
sg803
I0
sg804
I0
sbsg12
S'1.32'
p4862
sg18
S'D:\\Projects\\TXV_DRIVER\\drv_SipPhone'
p4863
sba(i__main__
DirectoryToProcess
p4864
(dp4865
g8
S'1'
p4866
sg10
S'drv_snmp'
p4867
sg796
g4608
sg14
(i__main__
LineCounts
p4868
(dp4869
g799
I0
sg800
I0
sg801
I0
sg802
I0
sg17
I3669
sg803
I0
sg804
I0
sbsg12
S'1.33'
p4870
sg18
S'D:\\Projects\\TXV_DRIVER\\drv_snmp'
p4871
sba(i__main__
DirectoryToProcess
p4872
(dp4873
g8
S'1'
p4874
sg10
S'drv_tps'
p4875
sg796
g4608
sg14
(i__main__
LineCounts
p4876
(dp4877
g799
I0
sg800
I0
sg801
I0
sg802
I0
sg17
I34380
sg803
I0
sg804
I0
sbsg12
S'1.34'
p4878
sg18
S'D:\\Projects\\TXV_DRIVER\\drv_tps\\trunk'
p4879
sba(i__main__
DirectoryToProcess
p4880
(dp4881
g8
S'1'
p4882
sg10
S'drv_Traficon'
p4883
sg796
g4608
sg14
(i__main__
LineCounts
p4884
(dp4885
g799
I0
sg800
I0
sg801
I0
sg802
I0
sg17
I2139
sg803
I0
sg804
I0
sbsg12
S'1.35'
p4886
sg18
S'D:\\Projects\\TXV_DRIVER\\drv_Traficon'
p4887
sba(i__main__
DirectoryToProcess
p4888
(dp4889
g8
S'1'
p4890
sg10
S'drv_VBA'
p4891
sg796
g4608
sg14
(i__main__
LineCounts
p4892
(dp4893
g799
I0
sg800
I0
sg801
I0
sg802
I0
sg17
I4121
sg803
I0
sg804
I0
sbsg12
S'1.36'
p4894
sg18
S'D:\\Projects\\TXV_DRIVER\\drv_VBA'
p4895
sba(i__main__
DirectoryToProcess
p4896
(dp4897
g8
S'1'
p4898
sg10
S'drv_Vidos'
p4899
sg796
g4608
sg14
(i__main__
LineCounts
p4900
(dp4901
g799
I0
sg800
I0
sg801
I0
sg802
I0
sg17
I309
sg803
I0
sg804
I0
sbsg12
S'1.37'
p4902
sg18
S'D:\\Projects\\TXV_DRIVER\\drv_Vidos'
p4903
sba(i__main__
DirectoryToProcess
p4904
(dp4905
g8
S'1'
p4906
sg10
S'drv_vmatrix'
p4907
sg796
g4608
sg14
(i__main__
LineCounts
p4908
(dp4909
g799
I0
sg800
I0
sg801
I0
sg802
I0
sg17
I3890
sg803
I0
sg804
I0
sbsg12
S'1.38'
p4910
sg18
S'D:\\Projects\\TXV_DRIVER\\drv_vmatrix'
p4911
sba(i__main__
DirectoryToProcess
p4912
(dp4913
g8
S'1'
p4914
sg10
S'drv_voip_pbx'
p4915
sg796
g4608
sg14
(i__main__
LineCounts
p4916
(dp4917
g799
I0
sg800
I0
sg801
I0
sg802
I0
sg17
I55144
sg803
I0
sg804
I0
sbsg12
S'1.39'
p4918
sg18
S'D:\\Projects\\TXV_DRIVER\\drv_voip_pbx'
p4919
sba(i__main__
DirectoryToProcess
p4920
(dp4921
g8
S'1'
p4922
sg10
S'drv_voip_tps'
p4923
sg796
g4608
sg14
(i__main__
LineCounts
p4924
(dp4925
g799
I0
sg800
I0
sg801
I0
sg802
I0
sg17
I7429
sg803
I0
sg804
I0
sbsg12
S'1.40'
p4926
sg18
S'D:\\Projects\\TXV_DRIVER\\drv_voip_tps'
p4927
sba(i__main__
DirectoryToProcess
p4928
(dp4929
g8
S'1'
p4930
sg10
S'drv_Win32Sys'
p4931
sg796
g4608
sg14
(i__main__
LineCounts
p4932
(dp4933
g799
I0
sg800
I0
sg801
I0
sg802
I0
sg17
I1694
sg803
I0
sg804
I0
sbsg12
S'1.41'
p4934
sg18
S'D:\\Projects\\TXV_DRIVER\\drv_Win32Sys'
p4935
sba(i__main__
DirectoryToProcess
p4936
(dp4937
g8
S'1'
p4938
sg10
S'mTPC'
p4939
sg796
g4608
sg14
(i__main__
LineCounts
p4940
(dp4941
g799
I0
sg800
I0
sg801
I0
sg802
I0
sg17
I52790
sg803
I0
sg804
I0
sbsg12
S'1.42'
p4942
sg18
S'D:\\Projects\\TXV_DRIVER\\mTPC\\trunk'
p4943
sba(i__main__
DirectoryToProcess
p4944
(dp4945
g8
S'1'
p4946
sg10
S'txv_auto_rad'
p4947
sg796
g4608
sg14
(i__main__
LineCounts
p4948
(dp4949
g799
I0
sg800
I0
sg801
I0
sg802
I0
sg17
I12306
sg803
I0
sg804
I0
sbsg12
S'1.43'
p4950
sg18
S'D:\\Projects\\TXV_DRIVER\\txv_auto_rad'
p4951
sba(i__main__
DirectoryToProcess
p4952
(dp4953
g8
S'1'
p4954
sg10
S'txv_Bridge'
p4955
sg796
g4608
sg14
(i__main__
LineCounts
p4956
(dp4957
g799
I0
sg800
I0
sg801
I0
sg802
I0
sg17
I2591
sg803
I0
sg804
I0
sbsg12
S'1.44'
p4958
sg18
S'D:\\Projects\\TXV_DRIVER\\txv_Bridge'
p4959
sba(i__main__
DirectoryToProcess
p4960
(dp4961
g8
S'1'
p4962
sg10
S'txv_california'
p4963
sg796
g4608
sg14
(i__main__
LineCounts
p4964
(dp4965
g799
I0
sg800
I0
sg801
I0
sg802
I0
sg17
I855
sg803
I0
sg804
I0
sbsg12
S'1.45'
p4966
sg18
S'D:\\Projects\\TXV_DRIVER\\txv_california'
p4967
sba(i__main__
DirectoryToProcess
p4968
(dp4969
g8
S'1'
p4970
sg10
S'txv_wavetronix'
p4971
sg796
g4608
sg14
(i__main__
LineCounts
p4972
(dp4973
g799
I0
sg800
I0
sg801
I0
sg802
I0
sg17
I9051
sg803
I0
sg804
I0
sbsg12
S'1.46'
p4974
sg18
S'D:\\Projects\\TXV_DRIVER\\txv_wavetronix'
p4975
sba(i__main__
DirectoryToProcess
p4976
(dp4977
g8
S'-1'
p4978
sg10
S'TXV_PLATFORM'
p4979
sg796
Nsg14
(i__main__
LineCounts
p4980
(dp4981
g799
I0
sg800
I0
sg801
I0
sg802
I0
sg17
I764769
sg803
I0
sg804
I0
sbsg12
S'2'
p4982
sg18
S'D:\\Projects\\TXV_PLATFORM\\trunk'
p4983
sba(i__main__
DirectoryToProcess
p4984
(dp4985
g8
S'2'
p4986
sg10
S'Alarm_Management'
p4987
sg796
g4976
sg14
(i__main__
LineCounts
p4988
(dp4989
g799
I0
sg800
I0
sg801
I0
sg802
I0
sg17
I19248
sg803
I0
sg804
I0
sbsg12
S'2.1'
p4990
sg18
S'D:\\Projects\\TXV_PLATFORM\\trunk\\Alarm Management'
p4991
sba(i__main__
DirectoryToProcess
p4992
(dp4993
g8
S'2'
p4994
sg10
S'AVL'
p4995
sg796
g4976
sg14
(i__main__
LineCounts
p4996
(dp4997
g799
I0
sg800
I0
sg801
I0
sg802
I0
sg17
I29177
sg803
I0
sg804
I0
sbsg12
S'2.2'
p4998
sg18
S'D:\\Projects\\TXV_PLATFORM\\trunk\\AVL'
p4999
sba(i__main__
DirectoryToProcess
p5000
(dp5001
g8
S'2'
p5002
sg10
S'Base'
p5003
sg796
g4976
sg14
(i__main__
LineCounts
p5004
(dp5005
g799
I0
sg800
I0
sg801
I0
sg802
I0
sg17
I51946
sg803
I0
sg804
I0
sbsg12
S'2.3'
p5006
sg18
S'D:\\Projects\\TXV_PLATFORM\\trunk\\Base'
p5007
sba(i__main__
DirectoryToProcess
p5008
(dp5009
g8
S'2'
p5010
sg10
S'Common'
p5011
sg796
g4976
sg14
(i__main__
LineCounts
p5012
(dp5013
g799
I0
sg800
I0
sg801
I0
sg802
I0
sg17
I72753
sg803
I0
sg804
I0
sbsg12
S'2.4'
p5014
sg18
S'D:\\Projects\\TXV_PLATFORM\\trunk\\Common'
p5015
sba(i__main__
DirectoryToProcess
p5016
(dp5017
g8
S'2'
p5018
sg10
S'Designer'
p5019
sg796
g4976
sg14
(i__main__
LineCounts
p5020
(dp5021
g799
I0
sg800
I0
sg801
I0
sg802
I0
sg17
I106163
sg803
I0
sg804
I0
sbsg12
S'2.5'
p5022
sg18
S'D:\\Projects\\TXV_PLATFORM\\trunk\\Designer'
p5023
sba(i__main__
DirectoryToProcess
p5024
(dp5025
g8
S'2'
p5026
sg10
S'Device_Library'
p5027
sg796
g4976
sg14
(i__main__
LineCounts
p5028
(dp5029
g799
I0
sg800
I0
sg801
I0
sg802
I0
sg17
I98986
sg803
I0
sg804
I0
sbsg12
S'2.6'
p5030
sg18
S'D:\\Projects\\TXV_PLATFORM\\trunk\\Device Library'
p5031
sba(i__main__
DirectoryToProcess
p5032
(dp5033
g8
S'2'
p5034
sg10
S'Device_Simulator'
p5035
sg796
g4976
sg14
(i__main__
LineCounts
p5036
(dp5037
g799
I0
sg800
I0
sg801
I0
sg802
I0
sg17
I3077
sg803
I0
sg804
I0
sbsg12
S'2.7'
p5038
sg18
S'D:\\Projects\\TXV_PLATFORM\\trunk\\Device Simulator'
p5039
sba(i__main__
DirectoryToProcess
p5040
(dp5041
g8
S'2'
p5042
sg10
S'GUI'
p5043
sg796
g4976
sg14
(i__main__
LineCounts
p5044
(dp5045
g799
I0
sg800
I0
sg801
I0
sg802
I0
sg17
I247405
sg803
I0
sg804
I0
sbsg12
S'2.8'
p5046
sg18
S'D:\\Projects\\TXV_PLATFORM\\trunk\\GUI'
p5047
sba(i__main__
DirectoryToProcess
p5048
(dp5049
g8
S'2'
p5050
sg10
S'IM'
p5051
sg796
g4976
sg14
(i__main__
LineCounts
p5052
(dp5053
g799
I0
sg800
I0
sg801
I0
sg802
I0
sg17
I3108
sg803
I0
sg804
I0
sbsg12
S'2.9'
p5054
sg18
S'D:\\Projects\\TXV_PLATFORM\\trunk\\IM'
p5055
sba(i__main__
DirectoryToProcess
p5056
(dp5057
g8
S'2'
p5058
sg10
S'LED'
p5059
sg796
g4976
sg14
(i__main__
LineCounts
p5060
(dp5061
g799
I0
sg800
I0
sg801
I0
sg802
I0
sg17
I8975
sg803
I0
sg804
I0
sbsg12
S'2.10'
p5062
sg18
S'D:\\Projects\\TXV_PLATFORM\\trunk\\LED'
p5063
sba(i__main__
DirectoryToProcess
p5064
(dp5065
g8
S'2'
p5066
sg10
S'Parking'
p5067
sg796
g4976
sg14
(i__main__
LineCounts
p5068
(dp5069
g799
I0
sg800
I0
sg801
I0
sg802
I0
sg17
I8420
sg803
I0
sg804
I0
sbsg12
S'2.11'
p5070
sg18
S'D:\\Projects\\TXV_PLATFORM\\trunk\\Parking'
p5071
sba(i__main__
DirectoryToProcess
p5072
(dp5073
g8
S'2'
p5074
sg10
S'PTM'
p5075
sg796
g4976
sg14
(i__main__
LineCounts
p5076
(dp5077
g799
I0
sg800
I0
sg801
I0
sg802
I0
sg17
I6551
sg803
I0
sg804
I0
sbsg12
S'2.12'
p5078
sg18
S'D:\\Projects\\TXV_PLATFORM\\trunk\\PTM'
p5079
sba(i__main__
DirectoryToProcess
p5080
(dp5081
g8
S'2'
p5082
sg10
S'RWIS'
p5083
sg796
g4976
sg14
(i__main__
LineCounts
p5084
(dp5085
g799
I0
sg800
I0
sg801
I0
sg802
I0
sg17
I3875
sg803
I0
sg804
I0
sbsg12
S'2.13'
p5086
sg18
S'D:\\Projects\\TXV_PLATFORM\\trunk\\RWIS'
p5087
sba(i__main__
DirectoryToProcess
p5088
(dp5089
g8
S'2'
p5090
sg10
S'SCATS'
p5091
sg796
g4976
sg14
(i__main__
LineCounts
p5092
(dp5093
g799
I0
sg800
I0
sg801
I0
sg802
I0
sg17
I19371
sg803
I0
sg804
I0
sbsg12
S'2.14'
p5094
sg18
S'D:\\Projects\\TXV_PLATFORM\\trunk\\SCATS'
p5095
sba(i__main__
DirectoryToProcess
p5096
(dp5097
g8
S'2'
p5098
sg10
S'TTP'
p5099
sg796
g4976
sg14
(i__main__
LineCounts
p5100
(dp5101
g799
I0
sg800
I0
sg801
I0
sg802
I0
sg17
I3351
sg803
I0
sg804
I0
sbsg12
S'2.15'
p5102
sg18
S'D:\\Projects\\TXV_PLATFORM\\trunk\\TTP'
p5103
sba(i__main__
DirectoryToProcess
p5104
(dp5105
g8
S'2'
p5106
sg10
S'TVIS'
p5107
sg796
g4976
sg14
(i__main__
LineCounts
p5108
(dp5109
g799
I0
sg800
I0
sg801
I0
sg802
I0
sg17
I82363
sg803
I0
sg804
I0
sbsg12
S'2.16'
p5110
sg18
S'D:\\Projects\\TXV_PLATFORM\\trunk\\TVIS'
p5111
sba(i__main__
DirectoryToProcess
p5112
(dp5113
g8
S'-1'
p5114
sg10
S'TXV_CLIENT'
p5115
sg796
Nsg14
(i__main__
LineCounts
p5116
(dp5117
g799
I0
sg800
I0
sg801
I0
sg802
I0
sg17
I506041
sg803
I0
sg804
I0
sbsg12
S'3'
p5118
sg18
S'D:\\Projects\\TXV_CLIENT'
p5119
sba(i__main__
DirectoryToProcess
p5120
(dp5121
g8
S'3'
p5122
sg10
S'AutomationServer'
p5123
sg796
g5112
sg14
(i__main__
LineCounts
p5124
(dp5125
g799
I0
sg800
I0
sg801
I0
sg802
I0
sg17
I11120
sg803
I0
sg804
I0
sbsg12
S'3.1'
p5126
sg18
S'D:\\Projects\\TXV_CLIENT\\AutomationServer'
p5127
sba(i__main__
DirectoryToProcess
p5128
(dp5129
g8
S'3'
p5130
sg10
S'DataIntegrity'
p5131
sg796
g5112
sg14
(i__main__
LineCounts
p5132
(dp5133
g799
I0
sg800
I0
sg801
I0
sg802
I0
sg17
I615
sg803
I0
sg804
I0
sbsg12
S'3.2'
p5134
sg18
S'D:\\Projects\\TXV_CLIENT\\DataIntegrity'
p5135
sba(i__main__
DirectoryToProcess
p5136
(dp5137
g8
S'3'
p5138
sg10
S'NTCIP_C2C'
p5139
sg796
g5112
sg14
(i__main__
LineCounts
p5140
(dp5141
g799
I0
sg800
I0
sg801
I0
sg802
I0
sg17
I64884
sg803
I0
sg804
I0
sbsg12
S'3.3'
p5142
sg18
S'D:\\Projects\\TXV_CLIENT\\NTCIP_C2C'
p5143
sba(i__main__
DirectoryToProcess
p5144
(dp5145
g8
S'3'
p5146
sg10
S'NTCIP_C2F'
p5147
sg796
g5112
sg14
(i__main__
LineCounts
p5148
(dp5149
g799
I0
sg800
I0
sg801
I0
sg802
I0
sg17
I62532
sg803
I0
sg804
I0
sbsg12
S'3.4'
p5150
sg18
S'D:\\Projects\\TXV_CLIENT\\NTCIP_C2F'
p5151
sba(i__main__
DirectoryToProcess
p5152
(dp5153
g8
S'3'
p5154
sg10
S'OM_Interface'
p5155
sg796
g5112
sg14
(i__main__
LineCounts
p5156
(dp5157
g799
I0
sg800
I0
sg801
I0
sg802
I0
sg17
I3127
sg803
I0
sg804
I0
sbsg12
S'3.5'
p5158
sg18
S'D:\\Projects\\TXV_CLIENT\\OM_Interface'
p5159
sba(i__main__
DirectoryToProcess
p5160
(dp5161
g8
S'3'
p5162
sg10
S'ScenarioManager2'
p5163
sg796
g5112
sg14
(i__main__
LineCounts
p5164
(dp5165
g799
I0
sg800
I0
sg801
I0
sg802
I0
sg17
I14778
sg803
I0
sg804
I0
sbsg12
S'3.6'
p5166
sg18
S'D:\\Projects\\TXV_CLIENT\\ScenarioManager2'
p5167
sba(i__main__
DirectoryToProcess
p5168
(dp5169
g8
S'3'
p5170
sg10
S'scenario_manager'
p5171
sg796
g5112
sg14
(i__main__
LineCounts
p5172
(dp5173
g799
I0
sg800
I0
sg801
I0
sg802
I0
sg17
I7026
sg803
I0
sg804
I0
sbsg12
S'3.7'
p5174
sg18
S'D:\\Projects\\TXV_CLIENT\\scenario_manager'
p5175
sba(i__main__
DirectoryToProcess
p5176
(dp5177
g8
S'3'
p5178
sg10
S'SpeedEnforcement'
p5179
sg796
g5112
sg14
(i__main__
LineCounts
p5180
(dp5181
g799
I0
sg800
I0
sg801
I0
sg802
I0
sg17
I8436
sg803
I0
sg804
I0
sbsg12
S'3.8'
p5182
sg18
S'D:\\Projects\\TXV_CLIENT\\SpeedEnforcement\\trunk\\src'
p5183
sba(i__main__
DirectoryToProcess
p5184
(dp5185
g8
S'3'
p5186
sg10
S'test_app'
p5187
sg796
g5112
sg14
(i__main__
LineCounts
p5188
(dp5189
g799
I0
sg800
I0
sg801
I0
sg802
I0
sg17
I5788
sg803
I0
sg804
I0
sbsg12
S'3.9'
p5190
sg18
S'D:\\Projects\\TXV_CLIENT\\test_app'
p5191
sba(i__main__
DirectoryToProcess
p5192
(dp5193
g8
S'3'
p5194
sg10
S'tXv_PDA_App'
p5195
sg796
g5112
sg14
(i__main__
LineCounts
p5196
(dp5197
g799
I0
sg800
I0
sg801
I0
sg802
I0
sg17
I2304
sg803
I0
sg804
I0
sbsg12
S'3.10'
p5198
sg18
S'D:\\Projects\\TXV_CLIENT\\tXv PDA App'
p5199
sba(i__main__
DirectoryToProcess
p5200
(dp5201
g8
S'3'
p5202
sg10
S'TXV_DATEX2'
p5203
sg796
g5112
sg14
(i__main__
LineCounts
p5204
(dp5205
g799
I0
sg800
I0
sg801
I0
sg802
I0
sg17
I32753
sg803
I0
sg804
I0
sbsg12
S'3.11'
p5206
sg18
S'D:\\Projects\\TXV_CLIENT\\TXV_DATEX2'
p5207
sba(i__main__
DirectoryToProcess
p5208
(dp5209
g8
S'3'
p5210
sg10
S'TXV_GUI_1'
p5211
sg796
g5112
sg14
(i__main__
LineCounts
p5212
(dp5213
g799
I0
sg800
I0
sg801
I0
sg802
I0
sg17
I268797
sg803
I0
sg804
I0
sbsg12
S'3.12'
p5214
sg18
S'D:\\Projects\\TXV_CLIENT\\TXV_GUI'
p5215
sba(i__main__
DirectoryToProcess
p5216
(dp5217
g8
S'3'
p5218
sg10
S'TXV_SERVICE'
p5219
sg796
g5112
sg14
(i__main__
LineCounts
p5220
(dp5221
g799
I0
sg800
I0
sg801
I0
sg802
I0
sg17
I2315
sg803
I0
sg804
I0
sbsg12
S'3.13'
p5222
sg18
S'D:\\Projects\\TXV_CLIENT\\TXV_SERVICE'
p5223
sba(i__main__
DirectoryToProcess
p5224
(dp5225
g8
S'3'
p5226
sg10
S'TXV_TFP'
p5227
sg796
g5112
sg14
(i__main__
LineCounts
p5228
(dp5229
g799
I0
sg800
I0
sg801
I0
sg802
I0
sg17
I19562
sg803
I0
sg804
I0
sbsg12
S'3.14'
p5230
sg18
S'D:\\Projects\\TXV_CLIENT\\TXV_TFP'
p5231
sba(i__main__
DirectoryToProcess
p5232
(dp5233
g8
S'3'
p5234
sg10
S'TXV_TTPRo'
p5235
sg796
g5112
sg14
(i__main__
LineCounts
p5236
(dp5237
g799
I0
sg800
I0
sg801
I0
sg802
I0
sg17
I2004
sg803
I0
sg804
I0
sbsg12
S'3.15'
p5238
sg18
S'D:\\Projects\\TXV_CLIENT\\TXV_TTPRo'
p5239
sba(i__main__
DirectoryToProcess
p5240
(dp5241
g8
S'-1'
p5242
sg10
S'TXV_CORE'
p5243
sg796
Nsg14
(i__main__
LineCounts
p5244
(dp5245
g799
I0
sg800
I0
sg801
I0
sg802
I0
sg17
I115446
sg803
I0
sg804
I0
sbsg12
S'4'
p5246
sg18
S'D:\\Projects\\TXV_CORE'
p5247
sba(i__main__
DirectoryToProcess
p5248
(dp5249
g8
S'4'
p5250
sg10
S'C_LIBRARY'
p5251
sg796
g5240
sg14
(i__main__
LineCounts
p5252
(dp5253
g799
I0
sg800
I0
sg801
I0
sg802
I0
sg17
I27679
sg803
I0
sg804
I0
sbsg12
S'4.1'
p5254
sg18
S'D:\\Projects\\TXV_CORE\\C_LIBRARY'
p5255
sba(i__main__
DirectoryToProcess
p5256
(dp5257
g8
S'4'
p5258
sg10
S'C_LIBRARY-branch-datasequencing'
p5259
sg796
g5240
sg14
(i__main__
LineCounts
p5260
(dp5261
g799
I0
sg800
I0
sg801
I0
sg802
I0
sg17
I27738
sg803
I0
sg804
I0
sbsg12
S'4.2'
p5262
sg18
S'D:\\Projects\\TXV_CORE\\C_LIBRARY-branch-datasequencing'
p5263
sba(i__main__
DirectoryToProcess
p5264
(dp5265
g8
S'4'
p5266
sg10
S'historian'
p5267
sg796
g5240
sg14
(i__main__
LineCounts
p5268
(dp5269
g799
I0
sg800
I0
sg801
I0
sg802
I0
sg17
I6361
sg803
I0
sg804
I0
sbsg12
S'4.3'
p5270
sg18
S'D:\\Projects\\TXV_CORE\\historian\\trunk'
p5271
sba(i__main__
DirectoryToProcess
p5272
(dp5273
g8
S'4'
p5274
sg10
S'tXv_Jezgra'
p5275
sg796
g5240
sg14
(i__main__
LineCounts
p5276
(dp5277
g799
I0
sg800
I0
sg801
I0
sg802
I0
sg17
I41430
sg803
I0
sg804
I0
sbsg12
S'4.4'
p5278
sg18
S'D:\\Projects\\TXV_CORE\\tXv Jezgra'
p5279
sba(i__main__
DirectoryToProcess
p5280
(dp5281
g8
S'4'
p5282
sg10
S'txv_Filter_HR'
p5283
sg796
g5240
sg14
(i__main__
LineCounts
p5284
(dp5285
g799
I0
sg800
I0
sg801
I0
sg802
I0
sg17
I2645
sg803
I0
sg804
I0
sbsg12
S'4.5'
p5286
sg18
S'D:\\Projects\\TXV_CORE\\txv_Filter_HR'
p5287
sba(i__main__
DirectoryToProcess
p5288
(dp5289
g8
S'4'
p5290
sg10
S'UserRights'
p5291
sg796
g5240
sg14
(i__main__
LineCounts
p5292
(dp5293
g799
I0
sg800
I0
sg801
I0
sg802
I0
sg17
I9593
sg803
I0
sg804
I0
sbsg12
S'4.6'
p5294
sg18
S'D:\\Projects\\TXV_CORE\\UserRights'
p5295
sba(i__main__
DirectoryToProcess
p5296
(dp5297
g8
S'-1'
p5298
sg10
S'TXV_VIDEO'
p5299
sg796
Nsg14
(i__main__
LineCounts
p5300
(dp5301
g799
I0
sg800
I0
sg801
I0
sg802
I0
sg17
I107919
sg803
I0
sg804
I0
sbsg12
S'5'
p5302
sg18
S'D:\\Projects\\TXV_VIDEO'
p5303
sba(i__main__
DirectoryToProcess
p5304
(dp5305
g8
S'5'
p5306
sg10
S'drv_EyeConn'
p5307
sg796
g5296
sg14
(i__main__
LineCounts
p5308
(dp5309
g799
I0
sg800
I0
sg801
I0
sg802
I0
sg17
I4610
sg803
I0
sg804
I0
sbsg12
S'5.1'
p5310
sg18
S'D:\\Projects\\TXV_VIDEO\\drv_EyeConn'
p5311
sba(i__main__
DirectoryToProcess
p5312
(dp5313
g8
S'5'
p5314
sg10
S'drv_PTZ'
p5315
sg796
g5296
sg14
(i__main__
LineCounts
p5316
(dp5317
g799
I0
sg800
I0
sg801
I0
sg802
I0
sg17
I5651
sg803
I0
sg804
I0
sbsg12
S'5.2'
p5318
sg18
S'D:\\Projects\\TXV_VIDEO\\drv_PTZ'
p5319
sba(i__main__
DirectoryToProcess
p5320
(dp5321
g8
S'5'
p5322
sg10
S'drv_VideoTPS'
p5323
sg796
g5296
sg14
(i__main__
LineCounts
p5324
(dp5325
g799
I0
sg800
I0
sg801
I0
sg802
I0
sg17
I1833
sg803
I0
sg804
I0
sbsg12
S'5.3'
p5326
sg18
S'D:\\Projects\\TXV_VIDEO\\drv_VideoTPS'
p5327
sba(i__main__
DirectoryToProcess
p5328
(dp5329
g8
S'5'
p5330
sg10
S'KeyboardDriver'
p5331
sg796
g5296
sg14
(i__main__
LineCounts
p5332
(dp5333
g799
I0
sg800
I0
sg801
I0
sg802
I0
sg17
I9369
sg803
I0
sg804
I0
sbsg12
S'5.4'
p5334
sg18
S'D:\\Projects\\TXV_VIDEO\\KeyboardDriver'
p5335
sba(i__main__
DirectoryToProcess
p5336
(dp5337
g8
S'5'
p5338
sg10
S'NVR'
p5339
sg796
g5296
sg14
(i__main__
LineCounts
p5340
(dp5341
g799
I0
sg800
I0
sg801
I0
sg802
I0
sg17
I35246
sg803
I0
sg804
I0
sbsg12
S'5.5'
p5342
sg18
S'D:\\Projects\\TXV_VIDEO\\NVR'
p5343
sba(i__main__
DirectoryToProcess
p5344
(dp5345
g8
S'5'
p5346
sg10
S'NVRConnDLL'
p5347
sg796
g5296
sg14
(i__main__
LineCounts
p5348
(dp5349
g799
I0
sg800
I0
sg801
I0
sg802
I0
sg17
I2970
sg803
I0
sg804
I0
sbsg12
S'5.6'
p5350
sg18
S'D:\\Projects\\TXV_VIDEO\\NVRConnDLL'
p5351
sba(i__main__
DirectoryToProcess
p5352
(dp5353
g8
S'5'
p5354
sg10
S'NVRConsole'
p5355
sg796
g5296
sg14
(i__main__
LineCounts
p5356
(dp5357
g799
I0
sg800
I0
sg801
I0
sg802
I0
sg17
I19043
sg803
I0
sg804
I0
sbsg12
S'5.7'
p5358
sg18
S'D:\\Projects\\TXV_VIDEO\\NVRConsole'
p5359
sba(i__main__
DirectoryToProcess
p5360
(dp5361
g8
S'5'
p5362
sg10
S'VideoPlayer'
p5363
sg796
g5296
sg14
(i__main__
LineCounts
p5364
(dp5365
g799
I0
sg800
I0
sg801
I0
sg802
I0
sg17
I29197
sg803
I0
sg804
I0
sbsg12
S'5.8'
p5366
sg18
S'D:\\Projects\\TXV_VIDEO\\VideoPlayer'
p5367
sba(i__main__
DirectoryToProcess
p5368
(dp5369
g8
S'-1'
p5370
sg10
S'TXV_INTERNAL'
p5371
sg796
Nsg14
(i__main__
LineCounts
p5372
(dp5373
g799
I0
sg800
I0
sg801
I0
sg802
I0
sg17
I48689
sg803
I0
sg804
I0
sbsg12
S'6'
p5374
sg18
S'D:\\Projects\\TXV_INTERNAL'
p5375
sba(i__main__
DirectoryToProcess
p5376
(dp5377
g8
S'6'
p5378
sg10
S'Nemesis'
p5379
sg796
g5368
sg14
(i__main__
LineCounts
p5380
(dp5381
g799
I0
sg800
I0
sg801
I0
sg802
I0
sg17
I48689
sg803
I0
sg804
I0
sbsg12
S'6.1'
p5382
sg18
S'D:\\Projects\\TXV_INTERNAL\\Nemesis'
p5383
sbas.